(dp1
S'grad_clip'
p2
F5
sS'vocab_size'
p3
I2
sS'last_epoch_loss'
p4
cnumpy.core.multiarray
scalar
p5
(cnumpy
dtype
p6
(S'f8'
I0
I1
tRp7
(I3
S'<'
NNNI-1
I-1
I0
tbS'\xd3\xd6_\xce\xfazs?'
tRp8
sVdata_type
p9
V0entropy
p10
sS'lower_bound'
p11
I0
sS'learning_rate'
p12
F0.002
sS'file_size'
p13
I1000000
sS'num_layers'
p14
I2
sS'batch_size'
p15
I50
sS'info_path'
p16
S'data/sequence_data/info_0entropy_0_iter_11_markovity.txt'
p17
sS'num_epochs'
p18
I100
sVmarkovity
p19
I11
sS'epoch_stopped'
p20
I4
sS'save_every'
p21
I1000
sS'init_from'
p22
NsS'rnn_size'
p23
I128
sVp1
p24
F0.5
sVEntropy
p25
I0
sS'seq_length'
p26
I50
sS'decay_rate'
p27
F0.98999999999999999
sS'data_path'
p28
S'data/sequence_data/input_0entropy_0_iter_11_markovity.txt'
p29
sS'save_dir'
p30
S'save'
p31
sS'output_path'
p32
S'outputs/output_0entropy_3.txt'
p33
sS'model'
p34
S'lstm'
p35
s.(dp1
S'grad_clip'
p2
F5
sS'vocab_size'
p3
I2
sS'last_epoch_loss'
p4
cnumpy.core.multiarray
scalar
p5
(cnumpy
dtype
p6
(S'f8'
I0
I1
tRp7
(I3
S'<'
NNNI-1
I-1
I0
tbS'\xbai\xa0\xad\xbb\x1fv?'
tRp8
sVdata_type
p9
V0entropy
p10
sS'lower_bound'
p11
I0
sS'learning_rate'
p12
F0.002
sS'file_size'
p13
I1000000
sS'num_layers'
p14
I2
sS'batch_size'
p15
I50
sS'info_path'
p16
S'data/sequence_data/info_0entropy_1_iter_11_markovity.txt'
p17
sS'num_epochs'
p18
I100
sVmarkovity
p19
I11
sS'epoch_stopped'
p20
I4
sS'save_every'
p21
I1000
sS'init_from'
p22
NsS'rnn_size'
p23
I128
sVp1
p24
F0.5
sVEntropy
p25
I0
sS'seq_length'
p26
I50
sS'decay_rate'
p27
F0.98999999999999999
sS'data_path'
p28
S'data/sequence_data/input_0entropy_1_iter_11_markovity.txt'
p29
sS'save_dir'
p30
S'save'
p31
sS'output_path'
p32
S'outputs/output_0entropy_3.txt'
p33
sS'model'
p34
S'lstm'
p35
s.(dp1
S'grad_clip'
p2
F5
sS'vocab_size'
p3
I2
sS'last_epoch_loss'
p4
cnumpy.core.multiarray
scalar
p5
(cnumpy
dtype
p6
(S'f8'
I0
I1
tRp7
(I3
S'<'
NNNI-1
I-1
I0
tbS'\xd2\x0c\x97\xdaifu?'
tRp8
sVdata_type
p9
V0entropy
p10
sS'lower_bound'
p11
I0
sS'learning_rate'
p12
F0.002
sS'file_size'
p13
I1000000
sS'num_layers'
p14
I2
sS'batch_size'
p15
I50
sS'info_path'
p16
S'data/sequence_data/info_0entropy_2_iter_11_markovity.txt'
p17
sS'num_epochs'
p18
I100
sVmarkovity
p19
I11
sS'epoch_stopped'
p20
I4
sS'save_every'
p21
I1000
sS'init_from'
p22
NsS'rnn_size'
p23
I128
sVp1
p24
F0.5
sVEntropy
p25
I0
sS'seq_length'
p26
I50
sS'decay_rate'
p27
F0.98999999999999999
sS'data_path'
p28
S'data/sequence_data/input_0entropy_2_iter_11_markovity.txt'
p29
sS'save_dir'
p30
S'save'
p31
sS'output_path'
p32
S'outputs/output_0entropy_3.txt'
p33
sS'model'
p34
S'lstm'
p35
s.(dp1
S'grad_clip'
p2
F5
sS'vocab_size'
p3
I2
sS'last_epoch_loss'
p4
cnumpy.core.multiarray
scalar
p5
(cnumpy
dtype
p6
(S'f8'
I0
I1
tRp7
(I3
S'<'
NNNI-1
I-1
I0
tbS'\xb1y\xa7%\x07Rx?'
tRp8
sVdata_type
p9
V0entropy
p10
sS'lower_bound'
p11
I0
sS'learning_rate'
p12
F0.002
sS'file_size'
p13
I1000000
sS'num_layers'
p14
I2
sS'batch_size'
p15
I50
sS'info_path'
p16
S'data/sequence_data/info_0entropy_3_iter_11_markovity.txt'
p17
sS'num_epochs'
p18
I100
sVmarkovity
p19
I11
sS'epoch_stopped'
p20
I3
sS'save_every'
p21
I1000
sS'init_from'
p22
NsS'rnn_size'
p23
I128
sVp1
p24
F0.5
sVEntropy
p25
I0
sS'seq_length'
p26
I50
sS'decay_rate'
p27
F0.98999999999999999
sS'data_path'
p28
S'data/sequence_data/input_0entropy_3_iter_11_markovity.txt'
p29
sS'save_dir'
p30
S'save'
p31
sS'output_path'
p32
S'outputs/output_0entropy_3.txt'
p33
sS'model'
p34
S'lstm'
p35
s.(dp1
S'grad_clip'
p2
F5
sS'vocab_size'
p3
I2
sS'last_epoch_loss'
p4
cnumpy.core.multiarray
scalar
p5
(cnumpy
dtype
p6
(S'f8'
I0
I1
tRp7
(I3
S'<'
NNNI-1
I-1
I0
tbS'\x81t\xc4\xc1R\x9dt?'
tRp8
sVdata_type
p9
V0entropy
p10
sS'lower_bound'
p11
I0
sS'learning_rate'
p12
F0.002
sS'file_size'
p13
I1000000
sS'num_layers'
p14
I2
sS'batch_size'
p15
I50
sS'info_path'
p16
S'data/sequence_data/info_0entropy_4_iter_11_markovity.txt'
p17
sS'num_epochs'
p18
I100
sVmarkovity
p19
I11
sS'epoch_stopped'
p20
I4
sS'save_every'
p21
I1000
sS'init_from'
p22
NsS'rnn_size'
p23
I128
sVp1
p24
F0.5
sVEntropy
p25
I0
sS'seq_length'
p26
I50
sS'decay_rate'
p27
F0.98999999999999999
sS'data_path'
p28
S'data/sequence_data/input_0entropy_4_iter_11_markovity.txt'
p29
sS'save_dir'
p30
S'save'
p31
sS'output_path'
p32
S'outputs/output_0entropy_3.txt'
p33
sS'model'
p34
S'lstm'
p35
s.(dp1
S'grad_clip'
p2
F5
sS'vocab_size'
p3
I2
sS'last_epoch_loss'
p4
cnumpy.core.multiarray
scalar
p5
(cnumpy
dtype
p6
(S'f8'
I0
I1
tRp7
(I3
S'<'
NNNI-1
I-1
I0
tbS'\x08\x87(\xa5H\xfe~?'
tRp8
sVdata_type
p9
V0entropy
p10
sS'lower_bound'
p11
I0
sS'learning_rate'
p12
F0.002
sS'file_size'
p13
I1000000
sS'num_layers'
p14
I2
sS'batch_size'
p15
I50
sS'info_path'
p16
S'data/sequence_data/info_0entropy_0_iter_21_markovity.txt'
p17
sS'num_epochs'
p18
I100
sVmarkovity
p19
I21
sS'epoch_stopped'
p20
I7
sS'save_every'
p21
I1000
sS'init_from'
p22
NsS'rnn_size'
p23
I128
sVp1
p24
F0.5
sVEntropy
p25
I0
sS'seq_length'
p26
I50
sS'decay_rate'
p27
F0.98999999999999999
sS'data_path'
p28
S'data/sequence_data/input_0entropy_0_iter_21_markovity.txt'
p29
sS'save_dir'
p30
S'save'
p31
sS'output_path'
p32
S'outputs/output_0entropy_3.txt'
p33
sS'model'
p34
S'lstm'
p35
s.(dp1
S'grad_clip'
p2
F5
sS'vocab_size'
p3
I2
sS'last_epoch_loss'
p4
cnumpy.core.multiarray
scalar
p5
(cnumpy
dtype
p6
(S'f8'
I0
I1
tRp7
(I3
S'<'
NNNI-1
I-1
I0
tbS'#\xc0\xa1\x95\x93<\x84?'
tRp8
sVdata_type
p9
V0entropy
p10
sS'lower_bound'
p11
I0
sS'learning_rate'
p12
F0.002
sS'file_size'
p13
I1000000
sS'num_layers'
p14
I2
sS'batch_size'
p15
I50
sS'info_path'
p16
S'data/sequence_data/info_0entropy_1_iter_21_markovity.txt'
p17
sS'num_epochs'
p18
I100
sVmarkovity
p19
I21
sS'epoch_stopped'
p20
I6
sS'save_every'
p21
I1000
sS'init_from'
p22
NsS'rnn_size'
p23
I128
sVp1
p24
F0.5
sVEntropy
p25
I0
sS'seq_length'
p26
I50
sS'decay_rate'
p27
F0.98999999999999999
sS'data_path'
p28
S'data/sequence_data/input_0entropy_1_iter_21_markovity.txt'
p29
sS'save_dir'
p30
S'save'
p31
sS'output_path'
p32
S'outputs/output_0entropy_3.txt'
p33
sS'model'
p34
S'lstm'
p35
s.(dp1
S'grad_clip'
p2
F5
sS'vocab_size'
p3
I2
sS'last_epoch_loss'
p4
cnumpy.core.multiarray
scalar
p5
(cnumpy
dtype
p6
(S'f8'
I0
I1
tRp7
(I3
S'<'
NNNI-1
I-1
I0
tbS'\nz\x89\x01\x04\x9ay?'
tRp8
sVdata_type
p9
V0entropy
p10
sS'lower_bound'
p11
I0
sS'learning_rate'
p12
F0.002
sS'file_size'
p13
I1000000
sS'num_layers'
p14
I2
sS'batch_size'
p15
I50
sS'info_path'
p16
S'data/sequence_data/info_0entropy_2_iter_21_markovity.txt'
p17
sS'num_epochs'
p18
I100
sVmarkovity
p19
I21
sS'epoch_stopped'
p20
I8
sS'save_every'
p21
I1000
sS'init_from'
p22
NsS'rnn_size'
p23
I128
sVp1
p24
F0.5
sVEntropy
p25
I0
sS'seq_length'
p26
I50
sS'decay_rate'
p27
F0.98999999999999999
sS'data_path'
p28
S'data/sequence_data/input_0entropy_2_iter_21_markovity.txt'
p29
sS'save_dir'
p30
S'save'
p31
sS'output_path'
p32
S'outputs/output_0entropy_3.txt'
p33
sS'model'
p34
S'lstm'
p35
s.(dp1
S'grad_clip'
p2
F5
sS'vocab_size'
p3
I2
sS'last_epoch_loss'
p4
cnumpy.core.multiarray
scalar
p5
(cnumpy
dtype
p6
(S'f8'
I0
I1
tRp7
(I3
S'<'
NNNI-1
I-1
I0
tbS'\x1ai\x13\xac\xd1\x88~?'
tRp8
sVdata_type
p9
V0entropy
p10
sS'lower_bound'
p11
I0
sS'learning_rate'
p12
F0.002
sS'file_size'
p13
I1000000
sS'num_layers'
p14
I2
sS'batch_size'
p15
I50
sS'info_path'
p16
S'data/sequence_data/info_0entropy_3_iter_21_markovity.txt'
p17
sS'num_epochs'
p18
I100
sVmarkovity
p19
I21
sS'epoch_stopped'
p20
I10
sS'save_every'
p21
I1000
sS'init_from'
p22
NsS'rnn_size'
p23
I128
sVp1
p24
F0.5
sVEntropy
p25
I0
sS'seq_length'
p26
I50
sS'decay_rate'
p27
F0.98999999999999999
sS'data_path'
p28
S'data/sequence_data/input_0entropy_3_iter_21_markovity.txt'
p29
sS'save_dir'
p30
S'save'
p31
sS'output_path'
p32
S'outputs/output_0entropy_3.txt'
p33
sS'model'
p34
S'lstm'
p35
s.(dp1
S'grad_clip'
p2
F5
sS'vocab_size'
p3
I2
sS'last_epoch_loss'
p4
cnumpy.core.multiarray
scalar
p5
(cnumpy
dtype
p6
(S'f8'
I0
I1
tRp7
(I3
S'<'
NNNI-1
I-1
I0
tbS'\xc3W\xc1O\xe4h\x80?'
tRp8
sVdata_type
p9
V0entropy
p10
sS'lower_bound'
p11
I0
sS'learning_rate'
p12
F0.002
sS'file_size'
p13
I1000000
sS'num_layers'
p14
I2
sS'batch_size'
p15
I50
sS'info_path'
p16
S'data/sequence_data/info_0entropy_4_iter_21_markovity.txt'
p17
sS'num_epochs'
p18
I100
sVmarkovity
p19
I21
sS'epoch_stopped'
p20
I7
sS'save_every'
p21
I1000
sS'init_from'
p22
NsS'rnn_size'
p23
I128
sVp1
p24
F0.5
sVEntropy
p25
I0
sS'seq_length'
p26
I50
sS'decay_rate'
p27
F0.98999999999999999
sS'data_path'
p28
S'data/sequence_data/input_0entropy_4_iter_21_markovity.txt'
p29
sS'save_dir'
p30
S'save'
p31
sS'output_path'
p32
S'outputs/output_0entropy_3.txt'
p33
sS'model'
p34
S'lstm'
p35
s.(dp1
S'grad_clip'
p2
F5
sS'vocab_size'
p3
I2
sS'last_epoch_loss'
p4
cnumpy.core.multiarray
scalar
p5
(cnumpy
dtype
p6
(S'f8'
I0
I1
tRp7
(I3
S'<'
NNNI-1
I-1
I0
tbS'\xa6j\x96\x16\x97\xafz?'
tRp8
sVdata_type
p9
V0entropy
p10
sS'lower_bound'
p11
I0
sS'learning_rate'
p12
F0.002
sS'file_size'
p13
I1000000
sS'num_layers'
p14
I2
sS'batch_size'
p15
I50
sS'info_path'
p16
S'data/sequence_data/info_0entropy_0_iter_31_markovity.txt'
p17
sS'num_epochs'
p18
I100
sVmarkovity
p19
I31
sS'epoch_stopped'
p20
I90
sS'save_every'
p21
I1000
sS'init_from'
p22
NsS'rnn_size'
p23
I128
sVp1
p24
F0.5
sVEntropy
p25
I0
sS'seq_length'
p26
I50
sS'decay_rate'
p27
F0.98999999999999999
sS'data_path'
p28
S'data/sequence_data/input_0entropy_0_iter_31_markovity.txt'
p29
sS'save_dir'
p30
S'save'
p31
sS'output_path'
p32
S'outputs/output_0entropy_3.txt'
p33
sS'model'
p34
S'lstm'
p35
s.(dp1
S'grad_clip'
p2
F5
sS'vocab_size'
p3
I2
sS'last_epoch_loss'
p4
cnumpy.core.multiarray
scalar
p5
(cnumpy
dtype
p6
(S'f8'
I0
I1
tRp7
(I3
S'<'
NNNI-1
I-1
I0
tbS',0N@iw\x81?'
tRp8
sVdata_type
p9
V0entropy
p10
sS'lower_bound'
p11
I0
sS'learning_rate'
p12
F0.002
sS'file_size'
p13
I1000000
sS'num_layers'
p14
I2
sS'batch_size'
p15
I50
sS'info_path'
p16
S'data/sequence_data/info_0entropy_1_iter_31_markovity.txt'
p17
sS'num_epochs'
p18
I100
sVmarkovity
p19
I31
sS'epoch_stopped'
p20
I35
sS'save_every'
p21
I1000
sS'init_from'
p22
NsS'rnn_size'
p23
I128
sVp1
p24
F0.5
sVEntropy
p25
I0
sS'seq_length'
p26
I50
sS'decay_rate'
p27
F0.98999999999999999
sS'data_path'
p28
S'data/sequence_data/input_0entropy_1_iter_31_markovity.txt'
p29
sS'save_dir'
p30
S'save'
p31
sS'output_path'
p32
S'outputs/output_0entropy_3.txt'
p33
sS'model'
p34
S'lstm'
p35
s.(dp1
S'grad_clip'
p2
F5
sS'vocab_size'
p3
I2
sS'last_epoch_loss'
p4
cnumpy.core.multiarray
scalar
p5
(cnumpy
dtype
p6
(S'f8'
I0
I1
tRp7
(I3
S'<'
NNNI-1
I-1
I0
tbS'<x\xce\xff\xb5f\x84?'
tRp8
sVdata_type
p9
V0entropy
p10
sS'lower_bound'
p11
I0
sS'learning_rate'
p12
F0.002
sS'file_size'
p13
I1000000
sS'num_layers'
p14
I2
sS'batch_size'
p15
I50
sS'info_path'
p16
S'data/sequence_data/info_0entropy_2_iter_31_markovity.txt'
p17
sS'num_epochs'
p18
I100
sVmarkovity
p19
I31
sS'epoch_stopped'
p20
I31
sS'save_every'
p21
I1000
sS'init_from'
p22
NsS'rnn_size'
p23
I128
sVp1
p24
F0.5
sVEntropy
p25
I0
sS'seq_length'
p26
I50
sS'decay_rate'
p27
F0.98999999999999999
sS'data_path'
p28
S'data/sequence_data/input_0entropy_2_iter_31_markovity.txt'
p29
sS'save_dir'
p30
S'save'
p31
sS'output_path'
p32
S'outputs/output_0entropy_3.txt'
p33
sS'model'
p34
S'lstm'
p35
s.(dp1
S'grad_clip'
p2
F5
sS'vocab_size'
p3
I2
sS'last_epoch_loss'
p4
cnumpy.core.multiarray
scalar
p5
(cnumpy
dtype
p6
(S'f8'
I0
I1
tRp7
(I3
S'<'
NNNI-1
I-1
I0
tbS'\xdaZ\x1c1\xbc\xc6\x80?'
tRp8
sVdata_type
p9
V0entropy
p10
sS'lower_bound'
p11
I0
sS'learning_rate'
p12
F0.002
sS'file_size'
p13
I1000000
sS'num_layers'
p14
I2
sS'batch_size'
p15
I50
sS'info_path'
p16
S'data/sequence_data/info_0entropy_3_iter_31_markovity.txt'
p17
sS'num_epochs'
p18
I100
sVmarkovity
p19
I31
sS'epoch_stopped'
p20
I34
sS'save_every'
p21
I1000
sS'init_from'
p22
NsS'rnn_size'
p23
I128
sVp1
p24
F0.5
sVEntropy
p25
I0
sS'seq_length'
p26
I50
sS'decay_rate'
p27
F0.98999999999999999
sS'data_path'
p28
S'data/sequence_data/input_0entropy_3_iter_31_markovity.txt'
p29
sS'save_dir'
p30
S'save'
p31
sS'output_path'
p32
S'outputs/output_0entropy_3.txt'
p33
sS'model'
p34
S'lstm'
p35
s.(dp1
S'grad_clip'
p2
F5
sS'vocab_size'
p3
I2
sS'last_epoch_loss'
p4
cnumpy.core.multiarray
scalar
p5
(cnumpy
dtype
p6
(S'f8'
I0
I1
tRp7
(I3
S'<'
NNNI-1
I-1
I0
tbS'\xd3\xf5\xeb\xff\x99\xcf\x7f?'
tRp8
sVdata_type
p9
V0entropy
p10
sS'lower_bound'
p11
I0
sS'learning_rate'
p12
F0.002
sS'file_size'
p13
I1000000
sS'num_layers'
p14
I2
sS'batch_size'
p15
I50
sS'info_path'
p16
S'data/sequence_data/info_0entropy_4_iter_31_markovity.txt'
p17
sS'num_epochs'
p18
I100
sVmarkovity
p19
I31
sS'epoch_stopped'
p20
I47
sS'save_every'
p21
I1000
sS'init_from'
p22
NsS'rnn_size'
p23
I128
sVp1
p24
F0.5
sVEntropy
p25
I0
sS'seq_length'
p26
I50
sS'decay_rate'
p27
F0.98999999999999999
sS'data_path'
p28
S'data/sequence_data/input_0entropy_4_iter_31_markovity.txt'
p29
sS'save_dir'
p30
S'save'
p31
sS'output_path'
p32
S'outputs/output_0entropy_3.txt'
p33
sS'model'
p34
S'lstm'
p35
s.(dp1
S'grad_clip'
p2
F5
sS'vocab_size'
p3
I2
sS'last_epoch_loss'
p4
cnumpy.core.multiarray
scalar
p5
(cnumpy
dtype
p6
(S'f8'
I0
I1
tRp7
(I3
S'<'
NNNI-1
I-1
I0
tbS'\x0f\x89*\xa8!\x00\xf0?'
tRp8
sVdata_type
p9
V0entropy
p10
sS'lower_bound'
p11
I0
sS'learning_rate'
p12
F0.002
sS'file_size'
p13
I1000000
sS'num_layers'
p14
I2
sS'batch_size'
p15
I50
sS'info_path'
p16
S'data/sequence_data/info_0entropy_0_iter_41_markovity.txt'
p17
sS'num_epochs'
p18
I100
sVmarkovity
p19
I41
sS'epoch_stopped'
p20
I100
sS'save_every'
p21
I1000
sS'init_from'
p22
NsS'rnn_size'
p23
I128
sVp1
p24
F0.5
sVEntropy
p25
I0
sS'seq_length'
p26
I50
sS'decay_rate'
p27
F0.98999999999999999
sS'data_path'
p28
S'data/sequence_data/input_0entropy_0_iter_41_markovity.txt'
p29
sS'save_dir'
p30
S'save'
p31
sS'output_path'
p32
S'outputs/output_0entropy_3.txt'
p33
sS'model'
p34
S'lstm'
p35
s.(dp1
S'grad_clip'
p2
F5
sS'vocab_size'
p3
I2
sS'last_epoch_loss'
p4
cnumpy.core.multiarray
scalar
p5
(cnumpy
dtype
p6
(S'f8'
I0
I1
tRp7
(I3
S'<'
NNNI-1
I-1
I0
tbS'\x97\x7f\xb9\xbe\xf5[\xb0?'
tRp8
sVdata_type
p9
V0entropy
p10
sS'lower_bound'
p11
I0
sS'learning_rate'
p12
F0.002
sS'file_size'
p13
I1000000
sS'num_layers'
p14
I2
sS'batch_size'
p15
I50
sS'info_path'
p16
S'data/sequence_data/info_0entropy_1_iter_41_markovity.txt'
p17
sS'num_epochs'
p18
I100
sVmarkovity
p19
I41
sS'epoch_stopped'
p20
I100
sS'save_every'
p21
I1000
sS'init_from'
p22
NsS'rnn_size'
p23
I128
sVp1
p24
F0.5
sVEntropy
p25
I0
sS'seq_length'
p26
I50
sS'decay_rate'
p27
F0.98999999999999999
sS'data_path'
p28
S'data/sequence_data/input_0entropy_1_iter_41_markovity.txt'
p29
sS'save_dir'
p30
S'save'
p31
sS'output_path'
p32
S'outputs/output_0entropy_3.txt'
p33
sS'model'
p34
S'lstm'
p35
s.(dp1
S'grad_clip'
p2
F5
sS'vocab_size'
p3
I2
sS'last_epoch_loss'
p4
cnumpy.core.multiarray
scalar
p5
(cnumpy
dtype
p6
(S'f8'
I0
I1
tRp7
(I3
S'<'
NNNI-1
I-1
I0
tbS'\xec\x98\xa5\x95\xbb\xc6\xc8?'
tRp8
sVdata_type
p9
V0entropy
p10
sS'lower_bound'
p11
I0
sS'learning_rate'
p12
F0.002
sS'file_size'
p13
I1000000
sS'num_layers'
p14
I2
sS'batch_size'
p15
I50
sS'info_path'
p16
S'data/sequence_data/info_0entropy_2_iter_41_markovity.txt'
p17
sS'num_epochs'
p18
I100
sVmarkovity
p19
I41
sS'epoch_stopped'
p20
I100
sS'save_every'
p21
I1000
sS'init_from'
p22
NsS'rnn_size'
p23
I128
sVp1
p24
F0.5
sVEntropy
p25
I0
sS'seq_length'
p26
I50
sS'decay_rate'
p27
F0.98999999999999999
sS'data_path'
p28
S'data/sequence_data/input_0entropy_2_iter_41_markovity.txt'
p29
sS'save_dir'
p30
S'save'
p31
sS'output_path'
p32
S'outputs/output_0entropy_3.txt'
p33
sS'model'
p34
S'lstm'
p35
s.(dp1
S'grad_clip'
p2
F5
sS'vocab_size'
p3
I2
sS'last_epoch_loss'
p4
cnumpy.core.multiarray
scalar
p5
(cnumpy
dtype
p6
(S'f8'
I0
I1
tRp7
(I3
S'<'
NNNI-1
I-1
I0
tbS'\xa6\xe0\x89\xb8\xf1\x1f\xd1?'
tRp8
sVdata_type
p9
V0entropy
p10
sS'lower_bound'
p11
I0
sS'learning_rate'
p12
F0.002
sS'file_size'
p13
I1000000
sS'num_layers'
p14
I2
sS'batch_size'
p15
I50
sS'info_path'
p16
S'data/sequence_data/info_0entropy_3_iter_41_markovity.txt'
p17
sS'num_epochs'
p18
I100
sVmarkovity
p19
I41
sS'epoch_stopped'
p20
I100
sS'save_every'
p21
I1000
sS'init_from'
p22
NsS'rnn_size'
p23
I128
sVp1
p24
F0.5
sVEntropy
p25
I0
sS'seq_length'
p26
I50
sS'decay_rate'
p27
F0.98999999999999999
sS'data_path'
p28
S'data/sequence_data/input_0entropy_3_iter_41_markovity.txt'
p29
sS'save_dir'
p30
S'save'
p31
sS'output_path'
p32
S'outputs/output_0entropy_3.txt'
p33
sS'model'
p34
S'lstm'
p35
s.(dp1
S'grad_clip'
p2
F5
sS'vocab_size'
p3
I2
sS'last_epoch_loss'
p4
cnumpy.core.multiarray
scalar
p5
(cnumpy
dtype
p6
(S'f8'
I0
I1
tRp7
(I3
S'<'
NNNI-1
I-1
I0
tbS'a\x9d\x9bX\xfa\xe2\x83?'
tRp8
sVdata_type
p9
V0entropy
p10
sS'lower_bound'
p11
I0
sS'learning_rate'
p12
F0.002
sS'file_size'
p13
I1000000
sS'num_layers'
p14
I2
sS'batch_size'
p15
I50
sS'info_path'
p16
S'data/sequence_data/info_0entropy_4_iter_41_markovity.txt'
p17
sS'num_epochs'
p18
I100
sVmarkovity
p19
I41
sS'epoch_stopped'
p20
I80
sS'save_every'
p21
I1000
sS'init_from'
p22
NsS'rnn_size'
p23
I128
sVp1
p24
F0.5
sVEntropy
p25
I0
sS'seq_length'
p26
I50
sS'decay_rate'
p27
F0.98999999999999999
sS'data_path'
p28
S'data/sequence_data/input_0entropy_4_iter_41_markovity.txt'
p29
sS'save_dir'
p30
S'save'
p31
sS'output_path'
p32
S'outputs/output_0entropy_3.txt'
p33
sS'model'
p34
S'lstm'
p35
s.(dp1
S'grad_clip'
p2
F5
sS'vocab_size'
p3
I2
sS'last_epoch_loss'
p4
cnumpy.core.multiarray
scalar
p5
(cnumpy
dtype
p6
(S'f8'
I0
I1
tRp7
(I3
S'<'
NNNI-1
I-1
I0
tbS'\xa3\xe3D\xf9\t\x00\xf0?'
tRp8
sVdata_type
p9
V0entropy
p10
sS'lower_bound'
p11
I0
sS'learning_rate'
p12
F0.002
sS'file_size'
p13
I1000000
sS'num_layers'
p14
I2
sS'batch_size'
p15
I50
sS'info_path'
p16
S'data/sequence_data/info_0entropy_0_iter_51_markovity.txt'
p17
sS'num_epochs'
p18
I100
sVmarkovity
p19
I51
sS'epoch_stopped'
p20
I100
sS'save_every'
p21
I1000
sS'init_from'
p22
NsS'rnn_size'
p23
I128
sVp1
p24
F0.5
sVEntropy
p25
I0
sS'seq_length'
p26
I50
sS'decay_rate'
p27
F0.98999999999999999
sS'data_path'
p28
S'data/sequence_data/input_0entropy_0_iter_51_markovity.txt'
p29
sS'save_dir'
p30
S'save'
p31
sS'output_path'
p32
S'outputs/output_0entropy_3.txt'
p33
sS'model'
p34
S'lstm'
p35
s.(dp1
S'grad_clip'
p2
F5
sS'vocab_size'
p3
I2
sS'last_epoch_loss'
p4
cnumpy.core.multiarray
scalar
p5
(cnumpy
dtype
p6
(S'f8'
I0
I1
tRp7
(I3
S'<'
NNNI-1
I-1
I0
tbS'\xbcv\x02>\xeb\xff\xef?'
tRp8
sVdata_type
p9
V0entropy
p10
sS'lower_bound'
p11
I0
sS'learning_rate'
p12
F0.002
sS'file_size'
p13
I1000000
sS'num_layers'
p14
I2
sS'batch_size'
p15
I50
sS'info_path'
p16
S'data/sequence_data/info_0entropy_1_iter_51_markovity.txt'
p17
sS'num_epochs'
p18
I100
sVmarkovity
p19
I51
sS'epoch_stopped'
p20
I100
sS'save_every'
p21
I1000
sS'init_from'
p22
NsS'rnn_size'
p23
I128
sVp1
p24
F0.5
sVEntropy
p25
I0
sS'seq_length'
p26
I50
sS'decay_rate'
p27
F0.98999999999999999
sS'data_path'
p28
S'data/sequence_data/input_0entropy_1_iter_51_markovity.txt'
p29
sS'save_dir'
p30
S'save'
p31
sS'output_path'
p32
S'outputs/output_0entropy_3.txt'
p33
sS'model'
p34
S'lstm'
p35
s.(dp1
S'grad_clip'
p2
F5
sS'vocab_size'
p3
I2
sS'last_epoch_loss'
p4
cnumpy.core.multiarray
scalar
p5
(cnumpy
dtype
p6
(S'f8'
I0
I1
tRp7
(I3
S'<'
NNNI-1
I-1
I0
tbS'Zqc\xcc\x00\x00\xf0?'
tRp8
sVdata_type
p9
V0entropy
p10
sS'lower_bound'
p11
I0
sS'learning_rate'
p12
F0.002
sS'file_size'
p13
I1000000
sS'num_layers'
p14
I2
sS'batch_size'
p15
I50
sS'info_path'
p16
S'data/sequence_data/info_0entropy_2_iter_51_markovity.txt'
p17
sS'num_epochs'
p18
I100
sVmarkovity
p19
I51
sS'epoch_stopped'
p20
I100
sS'save_every'
p21
I1000
sS'init_from'
p22
NsS'rnn_size'
p23
I128
sVp1
p24
F0.5
sVEntropy
p25
I0
sS'seq_length'
p26
I50
sS'decay_rate'
p27
F0.98999999999999999
sS'data_path'
p28
S'data/sequence_data/input_0entropy_2_iter_51_markovity.txt'
p29
sS'save_dir'
p30
S'save'
p31
sS'output_path'
p32
S'outputs/output_0entropy_3.txt'
p33
sS'model'
p34
S'lstm'
p35
s.(dp1
S'grad_clip'
p2
F5
sS'vocab_size'
p3
I2
sS'last_epoch_loss'
p4
cnumpy.core.multiarray
scalar
p5
(cnumpy
dtype
p6
(S'f8'
I0
I1
tRp7
(I3
S'<'
NNNI-1
I-1
I0
tbS'\xbd\x1a\xa4\x1d\x01\x00\xf0?'
tRp8
sVdata_type
p9
V0entropy
p10
sS'lower_bound'
p11
I0
sS'learning_rate'
p12
F0.002
sS'file_size'
p13
I1000000
sS'num_layers'
p14
I2
sS'batch_size'
p15
I50
sS'info_path'
p16
S'data/sequence_data/info_0entropy_3_iter_51_markovity.txt'
p17
sS'num_epochs'
p18
I100
sVmarkovity
p19
I51
sS'epoch_stopped'
p20
I100
sS'save_every'
p21
I1000
sS'init_from'
p22
NsS'rnn_size'
p23
I128
sVp1
p24
F0.5
sVEntropy
p25
I0
sS'seq_length'
p26
I50
sS'decay_rate'
p27
F0.98999999999999999
sS'data_path'
p28
S'data/sequence_data/input_0entropy_3_iter_51_markovity.txt'
p29
sS'save_dir'
p30
S'save'
p31
sS'output_path'
p32
S'outputs/output_0entropy_3.txt'
p33
sS'model'
p34
S'lstm'
p35
s.(dp1
S'grad_clip'
p2
F5
sS'vocab_size'
p3
I2
sS'last_epoch_loss'
p4
cnumpy.core.multiarray
scalar
p5
(cnumpy
dtype
p6
(S'f8'
I0
I1
tRp7
(I3
S'<'
NNNI-1
I-1
I0
tbS'\xf7\x86\x83G \x00\xf0?'
tRp8
sVdata_type
p9
V0entropy
p10
sS'lower_bound'
p11
I0
sS'learning_rate'
p12
F0.002
sS'file_size'
p13
I1000000
sS'num_layers'
p14
I2
sS'batch_size'
p15
I50
sS'info_path'
p16
S'data/sequence_data/info_0entropy_4_iter_51_markovity.txt'
p17
sS'num_epochs'
p18
I100
sVmarkovity
p19
I51
sS'epoch_stopped'
p20
I100
sS'save_every'
p21
I1000
sS'init_from'
p22
NsS'rnn_size'
p23
I128
sVp1
p24
F0.5
sVEntropy
p25
I0
sS'seq_length'
p26
I50
sS'decay_rate'
p27
F0.98999999999999999
sS'data_path'
p28
S'data/sequence_data/input_0entropy_4_iter_51_markovity.txt'
p29
sS'save_dir'
p30
S'save'
p31
sS'output_path'
p32
S'outputs/output_0entropy_3.txt'
p33
sS'model'
p34
S'lstm'
p35
s.(dp1
S'grad_clip'
p2
F5
sS'vocab_size'
p3
I2
sS'last_epoch_loss'
p4
cnumpy.core.multiarray
scalar
p5
(cnumpy
dtype
p6
(S'f8'
I0
I1
tRp7
(I3
S'<'
NNNI-1
I-1
I0
tbS'\x1f_\x83N%\x00\xf0?'
tRp8
sVdata_type
p9
V0entropy
p10
sS'lower_bound'
p11
I0
sS'learning_rate'
p12
F0.002
sS'file_size'
p13
I1000000
sS'num_layers'
p14
I2
sS'batch_size'
p15
I50
sS'info_path'
p16
S'data/sequence_data/info_0entropy_0_iter_61_markovity.txt'
p17
sS'num_epochs'
p18
I100
sVmarkovity
p19
I61
sS'epoch_stopped'
p20
I100
sS'save_every'
p21
I1000
sS'init_from'
p22
NsS'rnn_size'
p23
I128
sVp1
p24
F0.5
sVEntropy
p25
I0
sS'seq_length'
p26
I50
sS'decay_rate'
p27
F0.98999999999999999
sS'data_path'
p28
S'data/sequence_data/input_0entropy_0_iter_61_markovity.txt'
p29
sS'save_dir'
p30
S'save'
p31
sS'output_path'
p32
S'outputs/output_0entropy_3.txt'
p33
sS'model'
p34
S'lstm'
p35
s.(dp1
S'grad_clip'
p2
F5
sS'vocab_size'
p3
I2
sS'last_epoch_loss'
p4
cnumpy.core.multiarray
scalar
p5
(cnumpy
dtype
p6
(S'f8'
I0
I1
tRp7
(I3
S'<'
NNNI-1
I-1
I0
tbS'\xea{\x8ek#\x00\xf0?'
tRp8
sVdata_type
p9
V0entropy
p10
sS'lower_bound'
p11
I0
sS'learning_rate'
p12
F0.002
sS'file_size'
p13
I1000000
sS'num_layers'
p14
I2
sS'batch_size'
p15
I50
sS'info_path'
p16
S'data/sequence_data/info_0entropy_1_iter_61_markovity.txt'
p17
sS'num_epochs'
p18
I100
sVmarkovity
p19
I61
sS'epoch_stopped'
p20
I100
sS'save_every'
p21
I1000
sS'init_from'
p22
NsS'rnn_size'
p23
I128
sVp1
p24
F0.5
sVEntropy
p25
I0
sS'seq_length'
p26
I50
sS'decay_rate'
p27
F0.98999999999999999
sS'data_path'
p28
S'data/sequence_data/input_0entropy_1_iter_61_markovity.txt'
p29
sS'save_dir'
p30
S'save'
p31
sS'output_path'
p32
S'outputs/output_0entropy_3.txt'
p33
sS'model'
p34
S'lstm'
p35
s.(dp1
S'grad_clip'
p2
F5
sS'vocab_size'
p3
I2
sS'last_epoch_loss'
p4
cnumpy.core.multiarray
scalar
p5
(cnumpy
dtype
p6
(S'f8'
I0
I1
tRp7
(I3
S'<'
NNNI-1
I-1
I0
tbS'U\x06\xa4\xb3\r\x00\xf0?'
tRp8
sVdata_type
p9
V0entropy
p10
sS'lower_bound'
p11
I0
sS'learning_rate'
p12
F0.002
sS'file_size'
p13
I1000000
sS'num_layers'
p14
I2
sS'batch_size'
p15
I50
sS'info_path'
p16
S'data/sequence_data/info_0entropy_2_iter_61_markovity.txt'
p17
sS'num_epochs'
p18
I100
sVmarkovity
p19
I61
sS'epoch_stopped'
p20
I100
sS'save_every'
p21
I1000
sS'init_from'
p22
NsS'rnn_size'
p23
I128
sVp1
p24
F0.5
sVEntropy
p25
I0
sS'seq_length'
p26
I50
sS'decay_rate'
p27
F0.98999999999999999
sS'data_path'
p28
S'data/sequence_data/input_0entropy_2_iter_61_markovity.txt'
p29
sS'save_dir'
p30
S'save'
p31
sS'output_path'
p32
S'outputs/output_0entropy_3.txt'
p33
sS'model'
p34
S'lstm'
p35
s.(dp1
S'grad_clip'
p2
F5
sS'vocab_size'
p3
I2
sS'last_epoch_loss'
p4
cnumpy.core.multiarray
scalar
p5
(cnumpy
dtype
p6
(S'f8'
I0
I1
tRp7
(I3
S'<'
NNNI-1
I-1
I0
tbS'B\xd46K\n\x00\xf0?'
tRp8
sVdata_type
p9
V0entropy
p10
sS'lower_bound'
p11
I0
sS'learning_rate'
p12
F0.002
sS'file_size'
p13
I1000000
sS'num_layers'
p14
I2
sS'batch_size'
p15
I50
sS'info_path'
p16
S'data/sequence_data/info_0entropy_3_iter_61_markovity.txt'
p17
sS'num_epochs'
p18
I100
sVmarkovity
p19
I61
sS'epoch_stopped'
p20
I100
sS'save_every'
p21
I1000
sS'init_from'
p22
NsS'rnn_size'
p23
I128
sVp1
p24
F0.5
sVEntropy
p25
I0
sS'seq_length'
p26
I50
sS'decay_rate'
p27
F0.98999999999999999
sS'data_path'
p28
S'data/sequence_data/input_0entropy_3_iter_61_markovity.txt'
p29
sS'save_dir'
p30
S'save'
p31
sS'output_path'
p32
S'outputs/output_0entropy_3.txt'
p33
sS'model'
p34
S'lstm'
p35
s.(dp1
S'grad_clip'
p2
F5
sS'vocab_size'
p3
I2
sS'last_epoch_loss'
p4
cnumpy.core.multiarray
scalar
p5
(cnumpy
dtype
p6
(S'f8'
I0
I1
tRp7
(I3
S'<'
NNNI-1
I-1
I0
tbS'j\x1eb\x85\x03\x00\xf0?'
tRp8
sVdata_type
p9
V0entropy
p10
sS'lower_bound'
p11
I0
sS'learning_rate'
p12
F0.002
sS'file_size'
p13
I1000000
sS'num_layers'
p14
I2
sS'batch_size'
p15
I50
sS'info_path'
p16
S'data/sequence_data/info_0entropy_4_iter_61_markovity.txt'
p17
sS'num_epochs'
p18
I100
sVmarkovity
p19
I61
sS'epoch_stopped'
p20
I100
sS'save_every'
p21
I1000
sS'init_from'
p22
NsS'rnn_size'
p23
I128
sVp1
p24
F0.5
sVEntropy
p25
I0
sS'seq_length'
p26
I50
sS'decay_rate'
p27
F0.98999999999999999
sS'data_path'
p28
S'data/sequence_data/input_0entropy_4_iter_61_markovity.txt'
p29
sS'save_dir'
p30
S'save'
p31
sS'output_path'
p32
S'outputs/output_0entropy_3.txt'
p33
sS'model'
p34
S'lstm'
p35
s.(dp1
S'grad_clip'
p2
F5
sS'vocab_size'
p3
I2
sS'last_epoch_loss'
p4
cnumpy.core.multiarray
scalar
p5
(cnumpy
dtype
p6
(S'f8'
I0
I1
tRp7
(I3
S'<'
NNNI-1
I-1
I0
tbS'\x9d\xaa)\xb5\xe8\xfe\xef?'
tRp8
sVdata_type
p9
V0entropy
p10
sS'lower_bound'
p11
I0
sS'learning_rate'
p12
F0.002
sS'file_size'
p13
I1000000
sS'num_layers'
p14
I2
sS'batch_size'
p15
I50
sS'info_path'
p16
S'data/sequence_data/info_0entropy_0_iter_71_markovity.txt'
p17
sS'num_epochs'
p18
I100
sVmarkovity
p19
I71
sS'epoch_stopped'
p20
I100
sS'save_every'
p21
I1000
sS'init_from'
p22
NsS'rnn_size'
p23
I128
sVp1
p24
F0.5
sVEntropy
p25
I0
sS'seq_length'
p26
I50
sS'decay_rate'
p27
F0.98999999999999999
sS'data_path'
p28
S'data/sequence_data/input_0entropy_0_iter_71_markovity.txt'
p29
sS'save_dir'
p30
S'save'
p31
sS'output_path'
p32
S'outputs/output_0entropy_3.txt'
p33
sS'model'
p34
S'lstm'
p35
s.(dp1
S'grad_clip'
p2
F5
sS'vocab_size'
p3
I2
sS'last_epoch_loss'
p4
cnumpy.core.multiarray
scalar
p5
(cnumpy
dtype
p6
(S'f8'
I0
I1
tRp7
(I3
S'<'
NNNI-1
I-1
I0
tbS'\xdfJ\x17\xe1%\x00\xf0?'
tRp8
sVdata_type
p9
V0entropy
p10
sS'lower_bound'
p11
I0
sS'learning_rate'
p12
F0.002
sS'file_size'
p13
I1000000
sS'num_layers'
p14
I2
sS'batch_size'
p15
I50
sS'info_path'
p16
S'data/sequence_data/info_0entropy_1_iter_71_markovity.txt'
p17
sS'num_epochs'
p18
I100
sVmarkovity
p19
I71
sS'epoch_stopped'
p20
I100
sS'save_every'
p21
I1000
sS'init_from'
p22
NsS'rnn_size'
p23
I128
sVp1
p24
F0.5
sVEntropy
p25
I0
sS'seq_length'
p26
I50
sS'decay_rate'
p27
F0.98999999999999999
sS'data_path'
p28
S'data/sequence_data/input_0entropy_1_iter_71_markovity.txt'
p29
sS'save_dir'
p30
S'save'
p31
sS'output_path'
p32
S'outputs/output_0entropy_3.txt'
p33
sS'model'
p34
S'lstm'
p35
s.(dp1
S'grad_clip'
p2
F5
sS'vocab_size'
p3
I2
sS'last_epoch_loss'
p4
cnumpy.core.multiarray
scalar
p5
(cnumpy
dtype
p6
(S'f8'
I0
I1
tRp7
(I3
S'<'
NNNI-1
I-1
I0
tbS'\xd4\xb0\xa3\xce\x07\x00\xf0?'
tRp8
sVdata_type
p9
V0entropy
p10
sS'lower_bound'
p11
I0
sS'learning_rate'
p12
F0.002
sS'file_size'
p13
I1000000
sS'num_layers'
p14
I2
sS'batch_size'
p15
I50
sS'info_path'
p16
S'data/sequence_data/info_0entropy_2_iter_71_markovity.txt'
p17
sS'num_epochs'
p18
I100
sVmarkovity
p19
I71
sS'epoch_stopped'
p20
I100
sS'save_every'
p21
I1000
sS'init_from'
p22
NsS'rnn_size'
p23
I128
sVp1
p24
F0.5
sVEntropy
p25
I0
sS'seq_length'
p26
I50
sS'decay_rate'
p27
F0.98999999999999999
sS'data_path'
p28
S'data/sequence_data/input_0entropy_2_iter_71_markovity.txt'
p29
sS'save_dir'
p30
S'save'
p31
sS'output_path'
p32
S'outputs/output_0entropy_3.txt'
p33
sS'model'
p34
S'lstm'
p35
s.(dp1
S'grad_clip'
p2
F5
sS'vocab_size'
p3
I2
sS'last_epoch_loss'
p4
cnumpy.core.multiarray
scalar
p5
(cnumpy
dtype
p6
(S'f8'
I0
I1
tRp7
(I3
S'<'
NNNI-1
I-1
I0
tbS'\x1b\xb8r\x98\xd7\xfe\xef?'
tRp8
sVdata_type
p9
V0entropy
p10
sS'lower_bound'
p11
I0
sS'learning_rate'
p12
F0.002
sS'file_size'
p13
I1000000
sS'num_layers'
p14
I2
sS'batch_size'
p15
I50
sS'info_path'
p16
S'data/sequence_data/info_0entropy_3_iter_71_markovity.txt'
p17
sS'num_epochs'
p18
I100
sVmarkovity
p19
I71
sS'epoch_stopped'
p20
I100
sS'save_every'
p21
I1000
sS'init_from'
p22
NsS'rnn_size'
p23
I128
sVp1
p24
F0.5
sVEntropy
p25
I0
sS'seq_length'
p26
I50
sS'decay_rate'
p27
F0.98999999999999999
sS'data_path'
p28
S'data/sequence_data/input_0entropy_3_iter_71_markovity.txt'
p29
sS'save_dir'
p30
S'save'
p31
sS'output_path'
p32
S'outputs/output_0entropy_3.txt'
p33
sS'model'
p34
S'lstm'
p35
s.(dp1
S'grad_clip'
p2
F5
sS'vocab_size'
p3
I2
sS'last_epoch_loss'
p4
cnumpy.core.multiarray
scalar
p5
(cnumpy
dtype
p6
(S'f8'
I0
I1
tRp7
(I3
S'<'
NNNI-1
I-1
I0
tbS'+\xff\x1c\xca\x03\x00\xf0?'
tRp8
sVdata_type
p9
V0entropy
p10
sS'lower_bound'
p11
I0
sS'learning_rate'
p12
F0.002
sS'file_size'
p13
I1000000
sS'num_layers'
p14
I2
sS'batch_size'
p15
I50
sS'info_path'
p16
S'data/sequence_data/info_0entropy_4_iter_71_markovity.txt'
p17
sS'num_epochs'
p18
I100
sVmarkovity
p19
I71
sS'epoch_stopped'
p20
I100
sS'save_every'
p21
I1000
sS'init_from'
p22
NsS'rnn_size'
p23
I128
sVp1
p24
F0.5
sVEntropy
p25
I0
sS'seq_length'
p26
I50
sS'decay_rate'
p27
F0.98999999999999999
sS'data_path'
p28
S'data/sequence_data/input_0entropy_4_iter_71_markovity.txt'
p29
sS'save_dir'
p30
S'save'
p31
sS'output_path'
p32
S'outputs/output_0entropy_3.txt'
p33
sS'model'
p34
S'lstm'
p35
s.(dp1
S'grad_clip'
p2
F5
sS'vocab_size'
p3
I2
sS'last_epoch_loss'
p4
cnumpy.core.multiarray
scalar
p5
(cnumpy
dtype
p6
(S'f8'
I0
I1
tRp7
(I3
S'<'
NNNI-1
I-1
I0
tbS'?\x8d\x15[\x11\x00\xf0?'
tRp8
sVdata_type
p9
V0entropy
p10
sS'lower_bound'
p11
I0
sS'learning_rate'
p12
F0.002
sS'file_size'
p13
I1000000
sS'num_layers'
p14
I2
sS'batch_size'
p15
I50
sS'info_path'
p16
S'data/sequence_data/info_0entropy_0_iter_81_markovity.txt'
p17
sS'num_epochs'
p18
I100
sVmarkovity
p19
I81
sS'epoch_stopped'
p20
I100
sS'save_every'
p21
I1000
sS'init_from'
p22
NsS'rnn_size'
p23
I128
sVp1
p24
F0.5
sVEntropy
p25
I0
sS'seq_length'
p26
I50
sS'decay_rate'
p27
F0.98999999999999999
sS'data_path'
p28
S'data/sequence_data/input_0entropy_0_iter_81_markovity.txt'
p29
sS'save_dir'
p30
S'save'
p31
sS'output_path'
p32
S'outputs/output_0entropy_3.txt'
p33
sS'model'
p34
S'lstm'
p35
s.(dp1
S'grad_clip'
p2
F5
sS'vocab_size'
p3
I2
sS'last_epoch_loss'
p4
cnumpy.core.multiarray
scalar
p5
(cnumpy
dtype
p6
(S'f8'
I0
I1
tRp7
(I3
S'<'
NNNI-1
I-1
I0
tbS'\x1d\x00\xea\x13\xbd\xd0\xef?'
tRp8
sVdata_type
p9
V0entropy
p10
sS'lower_bound'
p11
I0
sS'learning_rate'
p12
F0.002
sS'file_size'
p13
I1000000
sS'num_layers'
p14
I2
sS'batch_size'
p15
I50
sS'info_path'
p16
S'data/sequence_data/info_0entropy_1_iter_81_markovity.txt'
p17
sS'num_epochs'
p18
I100
sVmarkovity
p19
I81
sS'epoch_stopped'
p20
I100
sS'save_every'
p21
I1000
sS'init_from'
p22
NsS'rnn_size'
p23
I128
sVp1
p24
F0.5
sVEntropy
p25
I0
sS'seq_length'
p26
I50
sS'decay_rate'
p27
F0.98999999999999999
sS'data_path'
p28
S'data/sequence_data/input_0entropy_1_iter_81_markovity.txt'
p29
sS'save_dir'
p30
S'save'
p31
sS'output_path'
p32
S'outputs/output_0entropy_3.txt'
p33
sS'model'
p34
S'lstm'
p35
s.(dp1
S'grad_clip'
p2
F5
sS'vocab_size'
p3
I2
sS'last_epoch_loss'
p4
cnumpy.core.multiarray
scalar
p5
(cnumpy
dtype
p6
(S'f8'
I0
I1
tRp7
(I3
S'<'
NNNI-1
I-1
I0
tbS'\xa0\xaf\x07\x96\xee\xfa\xef?'
tRp8
sVdata_type
p9
V0entropy
p10
sS'lower_bound'
p11
I0
sS'learning_rate'
p12
F0.002
sS'file_size'
p13
I1000000
sS'num_layers'
p14
I2
sS'batch_size'
p15
I50
sS'info_path'
p16
S'data/sequence_data/info_0entropy_2_iter_81_markovity.txt'
p17
sS'num_epochs'
p18
I100
sVmarkovity
p19
I81
sS'epoch_stopped'
p20
I100
sS'save_every'
p21
I1000
sS'init_from'
p22
NsS'rnn_size'
p23
I128
sVp1
p24
F0.5
sVEntropy
p25
I0
sS'seq_length'
p26
I50
sS'decay_rate'
p27
F0.98999999999999999
sS'data_path'
p28
S'data/sequence_data/input_0entropy_2_iter_81_markovity.txt'
p29
sS'save_dir'
p30
S'save'
p31
sS'output_path'
p32
S'outputs/output_0entropy_3.txt'
p33
sS'model'
p34
S'lstm'
p35
s.(dp1
S'grad_clip'
p2
F5
sS'vocab_size'
p3
I2
sS'last_epoch_loss'
p4
cnumpy.core.multiarray
scalar
p5
(cnumpy
dtype
p6
(S'f8'
I0
I1
tRp7
(I3
S'<'
NNNI-1
I-1
I0
tbS'z\x0e\xd7\xf6X\xff\xef?'
tRp8
sVdata_type
p9
V0entropy
p10
sS'lower_bound'
p11
I0
sS'learning_rate'
p12
F0.002
sS'file_size'
p13
I1000000
sS'num_layers'
p14
I2
sS'batch_size'
p15
I50
sS'info_path'
p16
S'data/sequence_data/info_0entropy_3_iter_81_markovity.txt'
p17
sS'num_epochs'
p18
I100
sVmarkovity
p19
I81
sS'epoch_stopped'
p20
I100
sS'save_every'
p21
I1000
sS'init_from'
p22
NsS'rnn_size'
p23
I128
sVp1
p24
F0.5
sVEntropy
p25
I0
sS'seq_length'
p26
I50
sS'decay_rate'
p27
F0.98999999999999999
sS'data_path'
p28
S'data/sequence_data/input_0entropy_3_iter_81_markovity.txt'
p29
sS'save_dir'
p30
S'save'
p31
sS'output_path'
p32
S'outputs/output_0entropy_3.txt'
p33
sS'model'
p34
S'lstm'
p35
s.(dp1
S'grad_clip'
p2
F5
sS'vocab_size'
p3
I2
sS'last_epoch_loss'
p4
cnumpy.core.multiarray
scalar
p5
(cnumpy
dtype
p6
(S'f8'
I0
I1
tRp7
(I3
S'<'
NNNI-1
I-1
I0
tbS'\x10\x19?}\x03\x00\xf0?'
tRp8
sVdata_type
p9
V0entropy
p10
sS'lower_bound'
p11
I0
sS'learning_rate'
p12
F0.002
sS'file_size'
p13
I1000000
sS'num_layers'
p14
I2
sS'batch_size'
p15
I50
sS'info_path'
p16
S'data/sequence_data/info_0entropy_4_iter_81_markovity.txt'
p17
sS'num_epochs'
p18
I100
sVmarkovity
p19
I81
sS'epoch_stopped'
p20
I100
sS'save_every'
p21
I1000
sS'init_from'
p22
NsS'rnn_size'
p23
I128
sVp1
p24
F0.5
sVEntropy
p25
I0
sS'seq_length'
p26
I50
sS'decay_rate'
p27
F0.98999999999999999
sS'data_path'
p28
S'data/sequence_data/input_0entropy_4_iter_81_markovity.txt'
p29
sS'save_dir'
p30
S'save'
p31
sS'output_path'
p32
S'outputs/output_0entropy_3.txt'
p33
sS'model'
p34
S'lstm'
p35
s.(dp1
S'grad_clip'
p2
F5
sS'vocab_size'
p3
I2
sS'last_epoch_loss'
p4
cnumpy.core.multiarray
scalar
p5
(cnumpy
dtype
p6
(S'f8'
I0
I1
tRp7
(I3
S'<'
NNNI-1
I-1
I0
tbS'\x8a\xbe\x96\xc7\x96\xff\xef?'
tRp8
sVdata_type
p9
V0entropy
p10
sS'lower_bound'
p11
I0
sS'learning_rate'
p12
F0.002
sS'file_size'
p13
I1000000
sS'num_layers'
p14
I2
sS'batch_size'
p15
I50
sS'info_path'
p16
S'data/sequence_data/info_0entropy_0_iter_91_markovity.txt'
p17
sS'num_epochs'
p18
I100
sVmarkovity
p19
I91
sS'epoch_stopped'
p20
I100
sS'save_every'
p21
I1000
sS'init_from'
p22
NsS'rnn_size'
p23
I128
sVp1
p24
F0.5
sVEntropy
p25
I0
sS'seq_length'
p26
I50
sS'decay_rate'
p27
F0.98999999999999999
sS'data_path'
p28
S'data/sequence_data/input_0entropy_0_iter_91_markovity.txt'
p29
sS'save_dir'
p30
S'save'
p31
sS'output_path'
p32
S'outputs/output_0entropy_3.txt'
p33
sS'model'
p34
S'lstm'
p35
s.(dp1
S'grad_clip'
p2
F5
sS'vocab_size'
p3
I2
sS'last_epoch_loss'
p4
cnumpy.core.multiarray
scalar
p5
(cnumpy
dtype
p6
(S'f8'
I0
I1
tRp7
(I3
S'<'
NNNI-1
I-1
I0
tbS'6\x11U\x02\xfa\xff\xef?'
tRp8
sVdata_type
p9
V0entropy
p10
sS'lower_bound'
p11
I0
sS'learning_rate'
p12
F0.002
sS'file_size'
p13
I1000000
sS'num_layers'
p14
I2
sS'batch_size'
p15
I50
sS'info_path'
p16
S'data/sequence_data/info_0entropy_1_iter_91_markovity.txt'
p17
sS'num_epochs'
p18
I100
sVmarkovity
p19
I91
sS'epoch_stopped'
p20
I100
sS'save_every'
p21
I1000
sS'init_from'
p22
NsS'rnn_size'
p23
I128
sVp1
p24
F0.5
sVEntropy
p25
I0
sS'seq_length'
p26
I50
sS'decay_rate'
p27
F0.98999999999999999
sS'data_path'
p28
S'data/sequence_data/input_0entropy_1_iter_91_markovity.txt'
p29
sS'save_dir'
p30
S'save'
p31
sS'output_path'
p32
S'outputs/output_0entropy_3.txt'
p33
sS'model'
p34
S'lstm'
p35
s.(dp1
S'grad_clip'
p2
F5
sS'vocab_size'
p3
I2
sS'last_epoch_loss'
p4
cnumpy.core.multiarray
scalar
p5
(cnumpy
dtype
p6
(S'f8'
I0
I1
tRp7
(I3
S'<'
NNNI-1
I-1
I0
tbS'\x8e\xdexd\xa1\xff\xef?'
tRp8
sVdata_type
p9
V0entropy
p10
sS'lower_bound'
p11
I0
sS'learning_rate'
p12
F0.002
sS'file_size'
p13
I1000000
sS'num_layers'
p14
I2
sS'batch_size'
p15
I50
sS'info_path'
p16
S'data/sequence_data/info_0entropy_2_iter_91_markovity.txt'
p17
sS'num_epochs'
p18
I100
sVmarkovity
p19
I91
sS'epoch_stopped'
p20
I100
sS'save_every'
p21
I1000
sS'init_from'
p22
NsS'rnn_size'
p23
I128
sVp1
p24
F0.5
sVEntropy
p25
I0
sS'seq_length'
p26
I50
sS'decay_rate'
p27
F0.98999999999999999
sS'data_path'
p28
S'data/sequence_data/input_0entropy_2_iter_91_markovity.txt'
p29
sS'save_dir'
p30
S'save'
p31
sS'output_path'
p32
S'outputs/output_0entropy_3.txt'
p33
sS'model'
p34
S'lstm'
p35
s.(dp1
S'grad_clip'
p2
F5
sS'vocab_size'
p3
I2
sS'last_epoch_loss'
p4
cnumpy.core.multiarray
scalar
p5
(cnumpy
dtype
p6
(S'f8'
I0
I1
tRp7
(I3
S'<'
NNNI-1
I-1
I0
tbS'\xec#\xcfW\xc1\xf0\xef?'
tRp8
sVdata_type
p9
V0entropy
p10
sS'lower_bound'
p11
I0
sS'learning_rate'
p12
F0.002
sS'file_size'
p13
I1000000
sS'num_layers'
p14
I2
sS'batch_size'
p15
I50
sS'info_path'
p16
S'data/sequence_data/info_0entropy_3_iter_91_markovity.txt'
p17
sS'num_epochs'
p18
I100
sVmarkovity
p19
I91
sS'epoch_stopped'
p20
I100
sS'save_every'
p21
I1000
sS'init_from'
p22
NsS'rnn_size'
p23
I128
sVp1
p24
F0.5
sVEntropy
p25
I0
sS'seq_length'
p26
I50
sS'decay_rate'
p27
F0.98999999999999999
sS'data_path'
p28
S'data/sequence_data/input_0entropy_3_iter_91_markovity.txt'
p29
sS'save_dir'
p30
S'save'
p31
sS'output_path'
p32
S'outputs/output_0entropy_3.txt'
p33
sS'model'
p34
S'lstm'
p35
s.(dp1
S'grad_clip'
p2
F5
sS'vocab_size'
p3
I2
sS'last_epoch_loss'
p4
cnumpy.core.multiarray
scalar
p5
(cnumpy
dtype
p6
(S'f8'
I0
I1
tRp7
(I3
S'<'
NNNI-1
I-1
I0
tbS'\xa2\xde\x84H\x16\x00\xf0?'
tRp8
sVdata_type
p9
V0entropy
p10
sS'lower_bound'
p11
I0
sS'learning_rate'
p12
F0.002
sS'file_size'
p13
I1000000
sS'num_layers'
p14
I2
sS'batch_size'
p15
I50
sS'info_path'
p16
S'data/sequence_data/info_0entropy_4_iter_91_markovity.txt'
p17
sS'num_epochs'
p18
I100
sVmarkovity
p19
I91
sS'epoch_stopped'
p20
I100
sS'save_every'
p21
I1000
sS'init_from'
p22
NsS'rnn_size'
p23
I128
sVp1
p24
F0.5
sVEntropy
p25
I0
sS'seq_length'
p26
I50
sS'decay_rate'
p27
F0.98999999999999999
sS'data_path'
p28
S'data/sequence_data/input_0entropy_4_iter_91_markovity.txt'
p29
sS'save_dir'
p30
S'save'
p31
sS'output_path'
p32
S'outputs/output_0entropy_3.txt'
p33
sS'model'
p34
S'lstm'
p35
s.(dp1
S'grad_clip'
p2
F5
sS'vocab_size'
p3
I2
sS'last_epoch_loss'
p4
cnumpy.core.multiarray
scalar
p5
(cnumpy
dtype
p6
(S'f8'
I0
I1
tRp7
(I3
S'<'
NNNI-1
I-1
I0
tbS'O\x1c\x8e\x01\xc3\xf7\xef?'
tRp8
sVdata_type
p9
V0entropy
p10
sS'lower_bound'
p11
I0
sS'learning_rate'
p12
F0.002
sS'file_size'
p13
I1000000
sS'num_layers'
p14
I2
sS'batch_size'
p15
I50
sS'info_path'
p16
S'data/sequence_data/info_0entropy_0_iter_101_markovity.txt'
p17
sS'num_epochs'
p18
I100
sVmarkovity
p19
I101
sS'epoch_stopped'
p20
I100
sS'save_every'
p21
I1000
sS'init_from'
p22
NsS'rnn_size'
p23
I128
sVp1
p24
F0.5
sVEntropy
p25
I0
sS'seq_length'
p26
I50
sS'decay_rate'
p27
F0.98999999999999999
sS'data_path'
p28
S'data/sequence_data/input_0entropy_0_iter_101_markovity.txt'
p29
sS'save_dir'
p30
S'save'
p31
sS'output_path'
p32
S'outputs/output_0entropy_3.txt'
p33
sS'model'
p34
S'lstm'
p35
s.(dp1
S'grad_clip'
p2
F5
sS'vocab_size'
p3
I2
sS'last_epoch_loss'
p4
cnumpy.core.multiarray
scalar
p5
(cnumpy
dtype
p6
(S'f8'
I0
I1
tRp7
(I3
S'<'
NNNI-1
I-1
I0
tbS';\xf2v!B\xfb\xef?'
tRp8
sVdata_type
p9
V0entropy
p10
sS'lower_bound'
p11
I0
sS'learning_rate'
p12
F0.002
sS'file_size'
p13
I1000000
sS'num_layers'
p14
I2
sS'batch_size'
p15
I50
sS'info_path'
p16
S'data/sequence_data/info_0entropy_1_iter_101_markovity.txt'
p17
sS'num_epochs'
p18
I100
sVmarkovity
p19
I101
sS'epoch_stopped'
p20
I100
sS'save_every'
p21
I1000
sS'init_from'
p22
NsS'rnn_size'
p23
I128
sVp1
p24
F0.5
sVEntropy
p25
I0
sS'seq_length'
p26
I50
sS'decay_rate'
p27
F0.98999999999999999
sS'data_path'
p28
S'data/sequence_data/input_0entropy_1_iter_101_markovity.txt'
p29
sS'save_dir'
p30
S'save'
p31
sS'output_path'
p32
S'outputs/output_0entropy_3.txt'
p33
sS'model'
p34
S'lstm'
p35
s.(dp1
S'grad_clip'
p2
F5
sS'vocab_size'
p3
I2
sS'last_epoch_loss'
p4
cnumpy.core.multiarray
scalar
p5
(cnumpy
dtype
p6
(S'f8'
I0
I1
tRp7
(I3
S'<'
NNNI-1
I-1
I0
tbS'\xf8$\xb9\x92\xcf\xff\xef?'
tRp8
sVdata_type
p9
V0entropy
p10
sS'lower_bound'
p11
I0
sS'learning_rate'
p12
F0.002
sS'file_size'
p13
I1000000
sS'num_layers'
p14
I2
sS'batch_size'
p15
I50
sS'info_path'
p16
S'data/sequence_data/info_0entropy_2_iter_101_markovity.txt'
p17
sS'num_epochs'
p18
I100
sVmarkovity
p19
I101
sS'epoch_stopped'
p20
I100
sS'save_every'
p21
I1000
sS'init_from'
p22
NsS'rnn_size'
p23
I128
sVp1
p24
F0.5
sVEntropy
p25
I0
sS'seq_length'
p26
I50
sS'decay_rate'
p27
F0.98999999999999999
sS'data_path'
p28
S'data/sequence_data/input_0entropy_2_iter_101_markovity.txt'
p29
sS'save_dir'
p30
S'save'
p31
sS'output_path'
p32
S'outputs/output_0entropy_3.txt'
p33
sS'model'
p34
S'lstm'
p35
s.(dp1
S'grad_clip'
p2
F5
sS'vocab_size'
p3
I2
sS'last_epoch_loss'
p4
cnumpy.core.multiarray
scalar
p5
(cnumpy
dtype
p6
(S'f8'
I0
I1
tRp7
(I3
S'<'
NNNI-1
I-1
I0
tbS'\x08\xf8{cO\xde\xef?'
tRp8
sVdata_type
p9
V0entropy
p10
sS'lower_bound'
p11
I0
sS'learning_rate'
p12
F0.002
sS'file_size'
p13
I1000000
sS'num_layers'
p14
I2
sS'batch_size'
p15
I50
sS'info_path'
p16
S'data/sequence_data/info_0entropy_3_iter_101_markovity.txt'
p17
sS'num_epochs'
p18
I100
sVmarkovity
p19
I101
sS'epoch_stopped'
p20
I100
sS'save_every'
p21
I1000
sS'init_from'
p22
NsS'rnn_size'
p23
I128
sVp1
p24
F0.5
sVEntropy
p25
I0
sS'seq_length'
p26
I50
sS'decay_rate'
p27
F0.98999999999999999
sS'data_path'
p28
S'data/sequence_data/input_0entropy_3_iter_101_markovity.txt'
p29
sS'save_dir'
p30
S'save'
p31
sS'output_path'
p32
S'outputs/output_0entropy_3.txt'
p33
sS'model'
p34
S'lstm'
p35
s.(dp1
S'grad_clip'
p2
F5
sS'vocab_size'
p3
I2
sS'last_epoch_loss'
p4
cnumpy.core.multiarray
scalar
p5
(cnumpy
dtype
p6
(S'f8'
I0
I1
tRp7
(I3
S'<'
NNNI-1
I-1
I0
tbS' `C)%\xf8\xef?'
tRp8
sVdata_type
p9
V0entropy
p10
sS'lower_bound'
p11
I0
sS'learning_rate'
p12
F0.002
sS'file_size'
p13
I1000000
sS'num_layers'
p14
I2
sS'batch_size'
p15
I50
sS'info_path'
p16
S'data/sequence_data/info_0entropy_4_iter_101_markovity.txt'
p17
sS'num_epochs'
p18
I100
sVmarkovity
p19
I101
sS'epoch_stopped'
p20
I100
sS'save_every'
p21
I1000
sS'init_from'
p22
NsS'rnn_size'
p23
I128
sVp1
p24
F0.5
sVEntropy
p25
I0
sS'seq_length'
p26
I50
sS'decay_rate'
p27
F0.98999999999999999
sS'data_path'
p28
S'data/sequence_data/input_0entropy_4_iter_101_markovity.txt'
p29
sS'save_dir'
p30
S'save'
p31
sS'output_path'
p32
S'outputs/output_0entropy_3.txt'
p33
sS'model'
p34
S'lstm'
p35
s.(dp1
S'grad_clip'
p2
F5
sS'vocab_size'
p3
I2
sS'last_epoch_loss'
p4
cnumpy.core.multiarray
scalar
p5
(cnumpy
dtype
p6
(S'f8'
I0
I1
tRp7
(I3
S'<'
NNNI-1
I-1
I0
tbS'\xc8_\xb1"\x89\xf7\xef?'
tRp8
sVdata_type
p9
V0entropy
p10
sS'lower_bound'
p11
I0
sS'learning_rate'
p12
F0.002
sS'file_size'
p13
I1000000
sS'num_layers'
p14
I2
sS'batch_size'
p15
I50
sS'info_path'
p16
S'data/sequence_data/info_0entropy_0_iter_111_markovity.txt'
p17
sS'num_epochs'
p18
I100
sVmarkovity
p19
I111
sS'epoch_stopped'
p20
I100
sS'save_every'
p21
I1000
sS'init_from'
p22
NsS'rnn_size'
p23
I128
sVp1
p24
F0.5
sVEntropy
p25
I0
sS'seq_length'
p26
I50
sS'decay_rate'
p27
F0.98999999999999999
sS'data_path'
p28
S'data/sequence_data/input_0entropy_0_iter_111_markovity.txt'
p29
sS'save_dir'
p30
S'save'
p31
sS'output_path'
p32
S'outputs/output_0entropy_3.txt'
p33
sS'model'
p34
S'lstm'
p35
s.(dp1
S'grad_clip'
p2
F5
sS'vocab_size'
p3
I2
sS'last_epoch_loss'
p4
cnumpy.core.multiarray
scalar
p5
(cnumpy
dtype
p6
(S'f8'
I0
I1
tRp7
(I3
S'<'
NNNI-1
I-1
I0
tbS'<;+\x89"\x00\xf0?'
tRp8
sVdata_type
p9
V0entropy
p10
sS'lower_bound'
p11
I0
sS'learning_rate'
p12
F0.002
sS'file_size'
p13
I1000000
sS'num_layers'
p14
I2
sS'batch_size'
p15
I50
sS'info_path'
p16
S'data/sequence_data/info_0entropy_1_iter_111_markovity.txt'
p17
sS'num_epochs'
p18
I100
sVmarkovity
p19
I111
sS'epoch_stopped'
p20
I100
sS'save_every'
p21
I1000
sS'init_from'
p22
NsS'rnn_size'
p23
I128
sVp1
p24
F0.5
sVEntropy
p25
I0
sS'seq_length'
p26
I50
sS'decay_rate'
p27
F0.98999999999999999
sS'data_path'
p28
S'data/sequence_data/input_0entropy_1_iter_111_markovity.txt'
p29
sS'save_dir'
p30
S'save'
p31
sS'output_path'
p32
S'outputs/output_0entropy_3.txt'
p33
sS'model'
p34
S'lstm'
p35
s.(dp1
S'grad_clip'
p2
F5
sS'vocab_size'
p3
I2
sS'last_epoch_loss'
p4
cnumpy.core.multiarray
scalar
p5
(cnumpy
dtype
p6
(S'f8'
I0
I1
tRp7
(I3
S'<'
NNNI-1
I-1
I0
tbS',eY\x80S\xff\xef?'
tRp8
sVdata_type
p9
V0entropy
p10
sS'lower_bound'
p11
I0
sS'learning_rate'
p12
F0.002
sS'file_size'
p13
I1000000
sS'num_layers'
p14
I2
sS'batch_size'
p15
I50
sS'info_path'
p16
S'data/sequence_data/info_0entropy_2_iter_111_markovity.txt'
p17
sS'num_epochs'
p18
I100
sVmarkovity
p19
I111
sS'epoch_stopped'
p20
I100
sS'save_every'
p21
I1000
sS'init_from'
p22
NsS'rnn_size'
p23
I128
sVp1
p24
F0.5
sVEntropy
p25
I0
sS'seq_length'
p26
I50
sS'decay_rate'
p27
F0.98999999999999999
sS'data_path'
p28
S'data/sequence_data/input_0entropy_2_iter_111_markovity.txt'
p29
sS'save_dir'
p30
S'save'
p31
sS'output_path'
p32
S'outputs/output_0entropy_3.txt'
p33
sS'model'
p34
S'lstm'
p35
s.(dp1
S'grad_clip'
p2
F5
sS'vocab_size'
p3
I2
sS'last_epoch_loss'
p4
cnumpy.core.multiarray
scalar
p5
(cnumpy
dtype
p6
(S'f8'
I0
I1
tRp7
(I3
S'<'
NNNI-1
I-1
I0
tbS'\x0eV\x05\x10\x94\xf7\xef?'
tRp8
sVdata_type
p9
V0entropy
p10
sS'lower_bound'
p11
I0
sS'learning_rate'
p12
F0.002
sS'file_size'
p13
I1000000
sS'num_layers'
p14
I2
sS'batch_size'
p15
I50
sS'info_path'
p16
S'data/sequence_data/info_0entropy_3_iter_111_markovity.txt'
p17
sS'num_epochs'
p18
I100
sVmarkovity
p19
I111
sS'epoch_stopped'
p20
I100
sS'save_every'
p21
I1000
sS'init_from'
p22
NsS'rnn_size'
p23
I128
sVp1
p24
F0.5
sVEntropy
p25
I0
sS'seq_length'
p26
I50
sS'decay_rate'
p27
F0.98999999999999999
sS'data_path'
p28
S'data/sequence_data/input_0entropy_3_iter_111_markovity.txt'
p29
sS'save_dir'
p30
S'save'
p31
sS'output_path'
p32
S'outputs/output_0entropy_3.txt'
p33
sS'model'
p34
S'lstm'
p35
s.(dp1
S'grad_clip'
p2
F5
sS'vocab_size'
p3
I2
sS'last_epoch_loss'
p4
cnumpy.core.multiarray
scalar
p5
(cnumpy
dtype
p6
(S'f8'
I0
I1
tRp7
(I3
S'<'
NNNI-1
I-1
I0
tbS'\xf7\xd1lZ\xe7\xe8\xef?'
tRp8
sVdata_type
p9
V0entropy
p10
sS'lower_bound'
p11
I0
sS'learning_rate'
p12
F0.002
sS'file_size'
p13
I1000000
sS'num_layers'
p14
I2
sS'batch_size'
p15
I50
sS'info_path'
p16
S'data/sequence_data/info_0entropy_4_iter_111_markovity.txt'
p17
sS'num_epochs'
p18
I100
sVmarkovity
p19
I111
sS'epoch_stopped'
p20
I100
sS'save_every'
p21
I1000
sS'init_from'
p22
NsS'rnn_size'
p23
I128
sVp1
p24
F0.5
sVEntropy
p25
I0
sS'seq_length'
p26
I50
sS'decay_rate'
p27
F0.98999999999999999
sS'data_path'
p28
S'data/sequence_data/input_0entropy_4_iter_111_markovity.txt'
p29
sS'save_dir'
p30
S'save'
p31
sS'output_path'
p32
S'outputs/output_0entropy_3.txt'
p33
sS'model'
p34
S'lstm'
p35
s.(dp1
S'grad_clip'
p2
F5
sS'vocab_size'
p3
I2
sS'last_epoch_loss'
p4
cnumpy.core.multiarray
scalar
p5
(cnumpy
dtype
p6
(S'f8'
I0
I1
tRp7
(I3
S'<'
NNNI-1
I-1
I0
tbS'Pf\xaf_!\x00\xf0?'
tRp8
sVdata_type
p9
V0entropy
p10
sS'lower_bound'
p11
I0
sS'learning_rate'
p12
F0.002
sS'file_size'
p13
I1000000
sS'num_layers'
p14
I2
sS'batch_size'
p15
I50
sS'info_path'
p16
S'data/sequence_data/info_0entropy_0_iter_121_markovity.txt'
p17
sS'num_epochs'
p18
I100
sVmarkovity
p19
I121
sS'epoch_stopped'
p20
I100
sS'save_every'
p21
I1000
sS'init_from'
p22
NsS'rnn_size'
p23
I128
sVp1
p24
F0.5
sVEntropy
p25
I0
sS'seq_length'
p26
I50
sS'decay_rate'
p27
F0.98999999999999999
sS'data_path'
p28
S'data/sequence_data/input_0entropy_0_iter_121_markovity.txt'
p29
sS'save_dir'
p30
S'save'
p31
sS'output_path'
p32
S'outputs/output_0entropy_3.txt'
p33
sS'model'
p34
S'lstm'
p35
s.(dp1
S'grad_clip'
p2
F5
sS'vocab_size'
p3
I2
sS'last_epoch_loss'
p4
cnumpy.core.multiarray
scalar
p5
(cnumpy
dtype
p6
(S'f8'
I0
I1
tRp7
(I3
S'<'
NNNI-1
I-1
I0
tbS'\x9fs\x07I\x02\x00\xf0?'
tRp8
sVdata_type
p9
V0entropy
p10
sS'lower_bound'
p11
I0
sS'learning_rate'
p12
F0.002
sS'file_size'
p13
I1000000
sS'num_layers'
p14
I2
sS'batch_size'
p15
I50
sS'info_path'
p16
S'data/sequence_data/info_0entropy_1_iter_121_markovity.txt'
p17
sS'num_epochs'
p18
I100
sVmarkovity
p19
I121
sS'epoch_stopped'
p20
I100
sS'save_every'
p21
I1000
sS'init_from'
p22
NsS'rnn_size'
p23
I128
sVp1
p24
F0.5
sVEntropy
p25
I0
sS'seq_length'
p26
I50
sS'decay_rate'
p27
F0.98999999999999999
sS'data_path'
p28
S'data/sequence_data/input_0entropy_1_iter_121_markovity.txt'
p29
sS'save_dir'
p30
S'save'
p31
sS'output_path'
p32
S'outputs/output_0entropy_3.txt'
p33
sS'model'
p34
S'lstm'
p35
s.