(dp1
S'grad_clip'
p2
F5
sS'vocab_size'
p3
I2
sS'last_epoch_loss'
p4
cnumpy.core.multiarray
scalar
p5
(cnumpy
dtype
p6
(S'f8'
I0
I1
tRp7
(I3
S'<'
NNNI-1
I-1
I0
tbS'\xac~\xef\xf3\xe3\xff\xef?'
tRp8
sVdata_type
p9
V0entropy
p10
sS'lower_bound'
p11
I0
sS'learning_rate'
p12
F0.0050000000000000001
sS'file_size'
p13
I10000000
sS'num_layers'
p14
I2
sS'batch_size'
p15
I50
sS'info_path'
p16
S'data/sequence_data/info_0entropy_0_iter_30_markovity.txt'
p17
sS'num_epochs'
p18
I50
sVmarkovity
p19
I30
sS'epoch_stopped'
p20
I50
sS'save_every'
p21
I1000
sS'init_from'
p22
NsS'rnn_size'
p23
I128
sVp1
p24
F0.5
sVEntropy
p25
I0
sS'summary_dir'
p26
S'.summary/size_128/markovity_29/run_0'
p27
sS'seq_length'
p28
I50
sS'decay_rate'
p29
F0.98999999999999999
sS'data_path'
p30
S'data/sequence_data/input_0entropy_0_iter_30_markovity.txt'
p31
sS'save_dir'
p32
S'save'
p33
sS'output_path'
p34
S'outputs/output_0entropy_6.txt'
p35
sS'model'
p36
S'lstm'
p37
s.(dp1
S'grad_clip'
p2
F5
sS'vocab_size'
p3
I2
sS'last_epoch_loss'
p4
cnumpy.core.multiarray
scalar
p5
(cnumpy
dtype
p6
(S'f8'
I0
I1
tRp7
(I3
S'<'
NNNI-1
I-1
I0
tbS'\xa7\xc8\xad\x90L\x00\xf0?'
tRp8
sVdata_type
p9
V0entropy
p10
sS'lower_bound'
p11
I0
sS'learning_rate'
p12
F0.0050000000000000001
sS'file_size'
p13
I10000000
sS'num_layers'
p14
I2
sS'batch_size'
p15
I50
sS'info_path'
p16
S'data/sequence_data/info_0entropy_0_iter_30_markovity.txt'
p17
sS'num_epochs'
p18
I50
sVmarkovity
p19
I30
sS'epoch_stopped'
p20
I50
sS'save_every'
p21
I1000
sS'init_from'
p22
NsS'rnn_size'
p23
I256
sVp1
p24
F0.5
sVEntropy
p25
I0
sS'summary_dir'
p26
S'.summary/size_256/markovity_29/run_0'
p27
sS'seq_length'
p28
I50
sS'decay_rate'
p29
F0.98999999999999999
sS'data_path'
p30
S'data/sequence_data/input_0entropy_0_iter_30_markovity.txt'
p31
sS'save_dir'
p32
S'save'
p33
sS'output_path'
p34
S'outputs/output_0entropy_6.txt'
p35
sS'model'
p36
S'lstm'
p37
s.(dp1
S'grad_clip'
p2
F5
sS'vocab_size'
p3
I2
sS'last_epoch_loss'
p4
cnumpy.core.multiarray
scalar
p5
(cnumpy
dtype
p6
(S'f8'
I0
I1
tRp7
(I3
S'<'
NNNI-1
I-1
I0
tbS'G\xe6\xeb\xf6\x1e\x00\xf0?'
tRp8
sVdata_type
p9
V0entropy
p10
sS'lower_bound'
p11
I0
sS'learning_rate'
p12
F0.0050000000000000001
sS'file_size'
p13
I10000000
sS'num_layers'
p14
I2
sS'batch_size'
p15
I50
sS'info_path'
p16
S'data/sequence_data/info_0entropy_0_iter_30_markovity.txt'
p17
sS'num_epochs'
p18
I50
sVmarkovity
p19
I30
sS'epoch_stopped'
p20
I50
sS'save_every'
p21
I1000
sS'init_from'
p22
NsS'rnn_size'
p23
I512
sVp1
p24
F0.5
sVEntropy
p25
I0
sS'summary_dir'
p26
S'.summary/size_512/markovity_29/run_0'
p27
sS'seq_length'
p28
I50
sS'decay_rate'
p29
F0.98999999999999999
sS'data_path'
p30
S'data/sequence_data/input_0entropy_0_iter_30_markovity.txt'
p31
sS'save_dir'
p32
S'save'
p33
sS'output_path'
p34
S'outputs/output_0entropy_6.txt'
p35
sS'model'
p36
S'lstm'
p37
s.(dp1
S'grad_clip'
p2
F5
sS'vocab_size'
p3
I2
sS'last_epoch_loss'
p4
cnumpy.core.multiarray
scalar
p5
(cnumpy
dtype
p6
(S'f8'
I0
I1
tRp7
(I3
S'<'
NNNI-1
I-1
I0
tbS'6\x08\x90\xb1\xdf\x00\xf0?'
tRp8
sVdata_type
p9
V0entropy
p10
sS'lower_bound'
p11
I0
sS'learning_rate'
p12
F0.0050000000000000001
sS'file_size'
p13
I10000000
sS'num_layers'
p14
I2
sS'batch_size'
p15
I50
sS'info_path'
p16
S'data/sequence_data/info_0entropy_1_iter_30_markovity.txt'
p17
sS'num_epochs'
p18
I50
sVmarkovity
p19
I30
sS'epoch_stopped'
p20
I50
sS'save_every'
p21
I1000
sS'init_from'
p22
NsS'rnn_size'
p23
I128
sVp1
p24
F0.5
sVEntropy
p25
I0
sS'summary_dir'
p26
S'.summary/size_128/markovity_29/run_1'
p27
sS'seq_length'
p28
I50
sS'decay_rate'
p29
F0.98999999999999999
sS'data_path'
p30
S'data/sequence_data/input_0entropy_1_iter_30_markovity.txt'
p31
sS'save_dir'
p32
S'save'
p33
sS'output_path'
p34
S'outputs/output_0entropy_6.txt'
p35
sS'model'
p36
S'lstm'
p37
s.(dp1
S'grad_clip'
p2
F5
sS'vocab_size'
p3
I2
sS'last_epoch_loss'
p4
cnumpy.core.multiarray
scalar
p5
(cnumpy
dtype
p6
(S'f8'
I0
I1
tRp7
(I3
S'<'
NNNI-1
I-1
I0
tbS'\x8f\xa2\xfe\xe0g\x00\xf0?'
tRp8
sVdata_type
p9
V0entropy
p10
sS'lower_bound'
p11
I0
sS'learning_rate'
p12
F0.0050000000000000001
sS'file_size'
p13
I10000000
sS'num_layers'
p14
I2
sS'batch_size'
p15
I50
sS'info_path'
p16
S'data/sequence_data/info_0entropy_1_iter_30_markovity.txt'
p17
sS'num_epochs'
p18
I50
sVmarkovity
p19
I30
sS'epoch_stopped'
p20
I50
sS'save_every'
p21
I1000
sS'init_from'
p22
NsS'rnn_size'
p23
I256
sVp1
p24
F0.5
sVEntropy
p25
I0
sS'summary_dir'
p26
S'.summary/size_256/markovity_29/run_1'
p27
sS'seq_length'
p28
I50
sS'decay_rate'
p29
F0.98999999999999999
sS'data_path'
p30
S'data/sequence_data/input_0entropy_1_iter_30_markovity.txt'
p31
sS'save_dir'
p32
S'save'
p33
sS'output_path'
p34
S'outputs/output_0entropy_6.txt'
p35
sS'model'
p36
S'lstm'
p37
s.(dp1
S'grad_clip'
p2
F5
sS'vocab_size'
p3
I2
sS'last_epoch_loss'
p4
cnumpy.core.multiarray
scalar
p5
(cnumpy
dtype
p6
(S'f8'
I0
I1
tRp7
(I3
S'<'
NNNI-1
I-1
I0
tbS'Z\xd4\x8bT\x9f\xfe\xef?'
tRp8
sVdata_type
p9
V0entropy
p10
sS'lower_bound'
p11
I0
sS'learning_rate'
p12
F0.0050000000000000001
sS'file_size'
p13
I10000000
sS'num_layers'
p14
I4
sS'batch_size'
p15
I50
sS'info_path'
p16
S'data/sequence_data/info_0entropy_0_iter_30_markovity.txt'
p17
sS'num_epochs'
p18
I80
sVmarkovity
p19
I30
sS'epoch_stopped'
p20
I80
sS'save_every'
p21
I1000
sS'init_from'
p22
NsS'rnn_size'
p23
I128
sVp1
p24
F0.5
sVEntropy
p25
I0
sS'summary_dir'
p26
S'.summary/size_128/num_layers_4/markovity_29/run_0'
p27
sS'seq_length'
p28
I50
sS'decay_rate'
p29
F0.98999999999999999
sS'data_path'
p30
S'data/sequence_data/input_0entropy_0_iter_30_markovity.txt'
p31
sS'save_dir'
p32
S'save'
p33
sS'output_path'
p34
S'outputs/output_0entropy_6.txt'
p35
sS'model'
p36
S'lstm'
p37
s.