(dp1
S'grad_clip'
p2
F5
sS'vocab_size'
p3
I2
sS'last_epoch_loss'
p4
cnumpy.core.multiarray
scalar
p5
(cnumpy
dtype
p6
(S'f8'
I0
I1
tRp7
(I3
S'<'
NNNI-1
I-1
I0
tbS'\x9d\xe8\x10S\xd2R}?'
tRp8
sVdata_type
p9
V0entropy
p10
sS'lower_bound'
p11
I0
sS'learning_rate'
p12
F0.002
sS'file_size'
p13
I1000000
sS'num_layers'
p14
I4
sS'batch_size'
p15
I50
sS'info_path'
p16
S'data/sequence_data/info_0entropy_0_iter_11_markovity.txt'
p17
sS'num_epochs'
p18
I100
sVmarkovity
p19
I11
sS'epoch_stopped'
p20
I3
sS'save_every'
p21
I1000
sS'init_from'
p22
NsS'rnn_size'
p23
I128
sVp1
p24
F0.5
sVEntropy
p25
I0
sS'seq_length'
p26
I50
sS'decay_rate'
p27
F0.98999999999999999
sS'data_path'
p28
S'data/sequence_data/input_0entropy_0_iter_11_markovity.txt'
p29
sS'save_dir'
p30
S'save'
p31
sS'output_path'
p32
S'outputs/output_0entropy_4.txt'
p33
sS'model'
p34
S'lstm'
p35
s.(dp1
S'grad_clip'
p2
F5
sS'vocab_size'
p3
I2
sS'last_epoch_loss'
p4
cnumpy.core.multiarray
scalar
p5
(cnumpy
dtype
p6
(S'f8'
I0
I1
tRp7
(I3
S'<'
NNNI-1
I-1
I0
tbS'K\xf9\x9e\t@`r?'
tRp8
sVdata_type
p9
V0entropy
p10
sS'lower_bound'
p11
I0
sS'learning_rate'
p12
F0.002
sS'file_size'
p13
I1000000
sS'num_layers'
p14
I4
sS'batch_size'
p15
I50
sS'info_path'
p16
S'data/sequence_data/info_0entropy_1_iter_11_markovity.txt'
p17
sS'num_epochs'
p18
I100
sVmarkovity
p19
I11
sS'epoch_stopped'
p20
I3
sS'save_every'
p21
I1000
sS'init_from'
p22
NsS'rnn_size'
p23
I128
sVp1
p24
F0.5
sVEntropy
p25
I0
sS'seq_length'
p26
I50
sS'decay_rate'
p27
F0.98999999999999999
sS'data_path'
p28
S'data/sequence_data/input_0entropy_1_iter_11_markovity.txt'
p29
sS'save_dir'
p30
S'save'
p31
sS'output_path'
p32
S'outputs/output_0entropy_4.txt'
p33
sS'model'
p34
S'lstm'
p35
s.(dp1
S'grad_clip'
p2
F5
sS'vocab_size'
p3
I2
sS'last_epoch_loss'
p4
cnumpy.core.multiarray
scalar
p5
(cnumpy
dtype
p6
(S'f8'
I0
I1
tRp7
(I3
S'<'
NNNI-1
I-1
I0
tbS'\xa2R{\x9d\xaa\xec\x81?'
tRp8
sVdata_type
p9
V0entropy
p10
sS'lower_bound'
p11
I0
sS'learning_rate'
p12
F0.002
sS'file_size'
p13
I1000000
sS'num_layers'
p14
I4
sS'batch_size'
p15
I50
sS'info_path'
p16
S'data/sequence_data/info_0entropy_2_iter_11_markovity.txt'
p17
sS'num_epochs'
p18
I100
sVmarkovity
p19
I11
sS'epoch_stopped'
p20
I4
sS'save_every'
p21
I1000
sS'init_from'
p22
NsS'rnn_size'
p23
I128
sVp1
p24
F0.5
sVEntropy
p25
I0
sS'seq_length'
p26
I50
sS'decay_rate'
p27
F0.98999999999999999
sS'data_path'
p28
S'data/sequence_data/input_0entropy_2_iter_11_markovity.txt'
p29
sS'save_dir'
p30
S'save'
p31
sS'output_path'
p32
S'outputs/output_0entropy_4.txt'
p33
sS'model'
p34
S'lstm'
p35
s.(dp1
S'grad_clip'
p2
F5
sS'vocab_size'
p3
I2
sS'last_epoch_loss'
p4
cnumpy.core.multiarray
scalar
p5
(cnumpy
dtype
p6
(S'f8'
I0
I1
tRp7
(I3
S'<'
NNNI-1
I-1
I0
tbS'\xf8\xb6\xa4\x15PS\x84?'
tRp8
sVdata_type
p9
V0entropy
p10
sS'lower_bound'
p11
I0
sS'learning_rate'
p12
F0.002
sS'file_size'
p13
I1000000
sS'num_layers'
p14
I4
sS'batch_size'
p15
I50
sS'info_path'
p16
S'data/sequence_data/info_0entropy_0_iter_11_markovity.txt'
p17
sS'num_epochs'
p18
I100
sVmarkovity
p19
I11
sS'epoch_stopped'
p20
I2
sS'save_every'
p21
I1000
sS'init_from'
p22
NsS'rnn_size'
p23
I128
sVp1
p24
F0.5
sVEntropy
p25
I0
sS'seq_length'
p26
I50
sS'decay_rate'
p27
F0.98999999999999999
sS'data_path'
p28
S'data/sequence_data/input_0entropy_0_iter_11_markovity.txt'
p29
sS'save_dir'
p30
S'save'
p31
sS'output_path'
p32
S'outputs/output_0entropy_4.txt'
p33
sS'model'
p34
S'lstm'
p35
s.(dp1
S'grad_clip'
p2
F5
sS'vocab_size'
p3
I2
sS'last_epoch_loss'
p4
cnumpy.core.multiarray
scalar
p5
(cnumpy
dtype
p6
(S'f8'
I0
I1
tRp7
(I3
S'<'
NNNI-1
I-1
I0
tbS'\x9f\r\x8d\xa2\x86\x0c~?'
tRp8
sVdata_type
p9
V0entropy
p10
sS'lower_bound'
p11
I0
sS'learning_rate'
p12
F0.002
sS'file_size'
p13
I1000000
sS'num_layers'
p14
I4
sS'batch_size'
p15
I50
sS'info_path'
p16
S'data/sequence_data/info_0entropy_1_iter_11_markovity.txt'
p17
sS'num_epochs'
p18
I100
sVmarkovity
p19
I11
sS'epoch_stopped'
p20
I3
sS'save_every'
p21
I1000
sS'init_from'
p22
NsS'rnn_size'
p23
I128
sVp1
p24
F0.5
sVEntropy
p25
I0
sS'seq_length'
p26
I50
sS'decay_rate'
p27
F0.98999999999999999
sS'data_path'
p28
S'data/sequence_data/input_0entropy_1_iter_11_markovity.txt'
p29
sS'save_dir'
p30
S'save'
p31
sS'output_path'
p32
S'outputs/output_0entropy_4.txt'
p33
sS'model'
p34
S'lstm'
p35
s.(dp1
S'grad_clip'
p2
F5
sS'vocab_size'
p3
I2
sS'last_epoch_loss'
p4
cnumpy.core.multiarray
scalar
p5
(cnumpy
dtype
p6
(S'f8'
I0
I1
tRp7
(I3
S'<'
NNNI-1
I-1
I0
tbS'\xbd\xdd\xcb\xccV\x1a\x84?'
tRp8
sVdata_type
p9
V0entropy
p10
sS'lower_bound'
p11
I0
sS'learning_rate'
p12
F0.002
sS'file_size'
p13
I1000000
sS'num_layers'
p14
I4
sS'batch_size'
p15
I50
sS'info_path'
p16
S'data/sequence_data/info_0entropy_2_iter_11_markovity.txt'
p17
sS'num_epochs'
p18
I100
sVmarkovity
p19
I11
sS'epoch_stopped'
p20
I4
sS'save_every'
p21
I1000
sS'init_from'
p22
NsS'rnn_size'
p23
I128
sVp1
p24
F0.5
sVEntropy
p25
I0
sS'seq_length'
p26
I50
sS'decay_rate'
p27
F0.98999999999999999
sS'data_path'
p28
S'data/sequence_data/input_0entropy_2_iter_11_markovity.txt'
p29
sS'save_dir'
p30
S'save'
p31
sS'output_path'
p32
S'outputs/output_0entropy_4.txt'
p33
sS'model'
p34
S'lstm'
p35
s.(dp1
S'grad_clip'
p2
F5
sS'vocab_size'
p3
I2
sS'last_epoch_loss'
p4
cnumpy.core.multiarray
scalar
p5
(cnumpy
dtype
p6
(S'f8'
I0
I1
tRp7
(I3
S'<'
NNNI-1
I-1
I0
tbS'2iW\x92\xca\x8e}?'
tRp8
sVdata_type
p9
V0entropy
p10
sS'lower_bound'
p11
I0
sS'learning_rate'
p12
F0.002
sS'file_size'
p13
I1000000
sS'num_layers'
p14
I4
sS'batch_size'
p15
I50
sS'info_path'
p16
S'data/sequence_data/info_0entropy_3_iter_11_markovity.txt'
p17
sS'num_epochs'
p18
I100
sVmarkovity
p19
I11
sS'epoch_stopped'
p20
I3
sS'save_every'
p21
I1000
sS'init_from'
p22
NsS'rnn_size'
p23
I128
sVp1
p24
F0.5
sVEntropy
p25
I0
sS'seq_length'
p26
I50
sS'decay_rate'
p27
F0.98999999999999999
sS'data_path'
p28
S'data/sequence_data/input_0entropy_3_iter_11_markovity.txt'
p29
sS'save_dir'
p30
S'save'
p31
sS'output_path'
p32
S'outputs/output_0entropy_4.txt'
p33
sS'model'
p34
S'lstm'
p35
s.(dp1
S'grad_clip'
p2
F5
sS'vocab_size'
p3
I2
sS'last_epoch_loss'
p4
cnumpy.core.multiarray
scalar
p5
(cnumpy
dtype
p6
(S'f8'
I0
I1
tRp7
(I3
S'<'
NNNI-1
I-1
I0
tbS'Fx\x87\xedU!w?'
tRp8
sVdata_type
p9
V0entropy
p10
sS'lower_bound'
p11
I0
sS'learning_rate'
p12
F0.002
sS'file_size'
p13
I1000000
sS'num_layers'
p14
I4
sS'batch_size'
p15
I50
sS'info_path'
p16
S'data/sequence_data/info_0entropy_4_iter_11_markovity.txt'
p17
sS'num_epochs'
p18
I100
sVmarkovity
p19
I11
sS'epoch_stopped'
p20
I4
sS'save_every'
p21
I1000
sS'init_from'
p22
NsS'rnn_size'
p23
I128
sVp1
p24
F0.5
sVEntropy
p25
I0
sS'seq_length'
p26
I50
sS'decay_rate'
p27
F0.98999999999999999
sS'data_path'
p28
S'data/sequence_data/input_0entropy_4_iter_11_markovity.txt'
p29
sS'save_dir'
p30
S'save'
p31
sS'output_path'
p32
S'outputs/output_0entropy_4.txt'
p33
sS'model'
p34
S'lstm'
p35
s.(dp1
S'grad_clip'
p2
F5
sS'vocab_size'
p3
I2
sS'last_epoch_loss'
p4
cnumpy.core.multiarray
scalar
p5
(cnumpy
dtype
p6
(S'f8'
I0
I1
tRp7
(I3
S'<'
NNNI-1
I-1
I0
tbS'\x0e\xf4_\xbb\xf3\xaax?'
tRp8
sVdata_type
p9
V0entropy
p10
sS'lower_bound'
p11
I0
sS'learning_rate'
p12
F0.002
sS'file_size'
p13
I1000000
sS'num_layers'
p14
I4
sS'batch_size'
p15
I50
sS'info_path'
p16
S'data/sequence_data/info_0entropy_0_iter_21_markovity.txt'
p17
sS'num_epochs'
p18
I100
sVmarkovity
p19
I21
sS'epoch_stopped'
p20
I5
sS'save_every'
p21
I1000
sS'init_from'
p22
NsS'rnn_size'
p23
I128
sVp1
p24
F0.5
sVEntropy
p25
I0
sS'seq_length'
p26
I50
sS'decay_rate'
p27
F0.98999999999999999
sS'data_path'
p28
S'data/sequence_data/input_0entropy_0_iter_21_markovity.txt'
p29
sS'save_dir'
p30
S'save'
p31
sS'output_path'
p32
S'outputs/output_0entropy_4.txt'
p33
sS'model'
p34
S'lstm'
p35
s.(dp1
S'grad_clip'
p2
F5
sS'vocab_size'
p3
I2
sS'last_epoch_loss'
p4
cnumpy.core.multiarray
scalar
p5
(cnumpy
dtype
p6
(S'f8'
I0
I1
tRp7
(I3
S'<'
NNNI-1
I-1
I0
tbS'\x11\xa0S\xc2\x0c\x90\x83?'
tRp8
sVdata_type
p9
V0entropy
p10
sS'lower_bound'
p11
I0
sS'learning_rate'
p12
F0.002
sS'file_size'
p13
I1000000
sS'num_layers'
p14
I4
sS'batch_size'
p15
I50
sS'info_path'
p16
S'data/sequence_data/info_0entropy_1_iter_21_markovity.txt'
p17
sS'num_epochs'
p18
I100
sVmarkovity
p19
I21
sS'epoch_stopped'
p20
I6
sS'save_every'
p21
I1000
sS'init_from'
p22
NsS'rnn_size'
p23
I128
sVp1
p24
F0.5
sVEntropy
p25
I0
sS'seq_length'
p26
I50
sS'decay_rate'
p27
F0.98999999999999999
sS'data_path'
p28
S'data/sequence_data/input_0entropy_1_iter_21_markovity.txt'
p29
sS'save_dir'
p30
S'save'
p31
sS'output_path'
p32
S'outputs/output_0entropy_4.txt'
p33
sS'model'
p34
S'lstm'
p35
s.(dp1
S'grad_clip'
p2
F5
sS'vocab_size'
p3
I2
sS'last_epoch_loss'
p4
cnumpy.core.multiarray
scalar
p5
(cnumpy
dtype
p6
(S'f8'
I0
I1
tRp7
(I3
S'<'
NNNI-1
I-1
I0
tbS'\xff\xcf\xe8\xdc\xbc\xe3x?'
tRp8
sVdata_type
p9
V0entropy
p10
sS'lower_bound'
p11
I0
sS'learning_rate'
p12
F0.002
sS'file_size'
p13
I1000000
sS'num_layers'
p14
I4
sS'batch_size'
p15
I50
sS'info_path'
p16
S'data/sequence_data/info_0entropy_2_iter_21_markovity.txt'
p17
sS'num_epochs'
p18
I100
sVmarkovity
p19
I21
sS'epoch_stopped'
p20
I5
sS'save_every'
p21
I1000
sS'init_from'
p22
NsS'rnn_size'
p23
I128
sVp1
p24
F0.5
sVEntropy
p25
I0
sS'seq_length'
p26
I50
sS'decay_rate'
p27
F0.98999999999999999
sS'data_path'
p28
S'data/sequence_data/input_0entropy_2_iter_21_markovity.txt'
p29
sS'save_dir'
p30
S'save'
p31
sS'output_path'
p32
S'outputs/output_0entropy_4.txt'
p33
sS'model'
p34
S'lstm'
p35
s.(dp1
S'grad_clip'
p2
F5
sS'vocab_size'
p3
I2
sS'last_epoch_loss'
p4
cnumpy.core.multiarray
scalar
p5
(cnumpy
dtype
p6
(S'f8'
I0
I1
tRp7
(I3
S'<'
NNNI-1
I-1
I0
tbS'\xc61\xe4\x8e\x9f\xf4\x83?'
tRp8
sVdata_type
p9
V0entropy
p10
sS'lower_bound'
p11
I0
sS'learning_rate'
p12
F0.002
sS'file_size'
p13
I1000000
sS'num_layers'
p14
I4
sS'batch_size'
p15
I50
sS'info_path'
p16
S'data/sequence_data/info_0entropy_3_iter_21_markovity.txt'
p17
sS'num_epochs'
p18
I100
sVmarkovity
p19
I21
sS'epoch_stopped'
p20
I5
sS'save_every'
p21
I1000
sS'init_from'
p22
NsS'rnn_size'
p23
I128
sVp1
p24
F0.5
sVEntropy
p25
I0
sS'seq_length'
p26
I50
sS'decay_rate'
p27
F0.98999999999999999
sS'data_path'
p28
S'data/sequence_data/input_0entropy_3_iter_21_markovity.txt'
p29
sS'save_dir'
p30
S'save'
p31
sS'output_path'
p32
S'outputs/output_0entropy_4.txt'
p33
sS'model'
p34
S'lstm'
p35
s.(dp1
S'grad_clip'
p2
F5
sS'vocab_size'
p3
I2
sS'last_epoch_loss'
p4
cnumpy.core.multiarray
scalar
p5
(cnumpy
dtype
p6
(S'f8'
I0
I1
tRp7
(I3
S'<'
NNNI-1
I-1
I0
tbS'\xca\t"\xbeMvy?'
tRp8
sVdata_type
p9
V0entropy
p10
sS'lower_bound'
p11
I0
sS'learning_rate'
p12
F0.002
sS'file_size'
p13
I1000000
sS'num_layers'
p14
I4
sS'batch_size'
p15
I50
sS'info_path'
p16
S'data/sequence_data/info_0entropy_4_iter_21_markovity.txt'
p17
sS'num_epochs'
p18
I100
sVmarkovity
p19
I21
sS'epoch_stopped'
p20
I6
sS'save_every'
p21
I1000
sS'init_from'
p22
NsS'rnn_size'
p23
I128
sVp1
p24
F0.5
sVEntropy
p25
I0
sS'seq_length'
p26
I50
sS'decay_rate'
p27
F0.98999999999999999
sS'data_path'
p28
S'data/sequence_data/input_0entropy_4_iter_21_markovity.txt'
p29
sS'save_dir'
p30
S'save'
p31
sS'output_path'
p32
S'outputs/output_0entropy_4.txt'
p33
sS'model'
p34
S'lstm'
p35
s.(dp1
S'grad_clip'
p2
F5
sS'vocab_size'
p3
I2
sS'last_epoch_loss'
p4
cnumpy.core.multiarray
scalar
p5
(cnumpy
dtype
p6
(S'f8'
I0
I1
tRp7
(I3
S'<'
NNNI-1
I-1
I0
tbS'\xd4\xf8,\xcd\xd77\x83?'
tRp8
sVdata_type
p9
V0entropy
p10
sS'lower_bound'
p11
I0
sS'learning_rate'
p12
F0.002
sS'file_size'
p13
I1000000
sS'num_layers'
p14
I4
sS'batch_size'
p15
I50
sS'info_path'
p16
S'data/sequence_data/info_0entropy_0_iter_31_markovity.txt'
p17
sS'num_epochs'
p18
I100
sVmarkovity
p19
I31
sS'epoch_stopped'
p20
I39
sS'save_every'
p21
I1000
sS'init_from'
p22
NsS'rnn_size'
p23
I128
sVp1
p24
F0.5
sVEntropy
p25
I0
sS'seq_length'
p26
I50
sS'decay_rate'
p27
F0.98999999999999999
sS'data_path'
p28
S'data/sequence_data/input_0entropy_0_iter_31_markovity.txt'
p29
sS'save_dir'
p30
S'save'
p31
sS'output_path'
p32
S'outputs/output_0entropy_4.txt'
p33
sS'model'
p34
S'lstm'
p35
s.(dp1
S'grad_clip'
p2
F5
sS'vocab_size'
p3
I2
sS'last_epoch_loss'
p4
cnumpy.core.multiarray
scalar
p5
(cnumpy
dtype
p6
(S'f8'
I0
I1
tRp7
(I3
S'<'
NNNI-1
I-1
I0
tbS'\xe3\xb0\x18m\xf3_\x84?'
tRp8
sVdata_type
p9
V0entropy
p10
sS'lower_bound'
p11
I0
sS'learning_rate'
p12
F0.002
sS'file_size'
p13
I1000000
sS'num_layers'
p14
I4
sS'batch_size'
p15
I50
sS'info_path'
p16
S'data/sequence_data/info_0entropy_1_iter_31_markovity.txt'
p17
sS'num_epochs'
p18
I100
sVmarkovity
p19
I31
sS'epoch_stopped'
p20
I35
sS'save_every'
p21
I1000
sS'init_from'
p22
NsS'rnn_size'
p23
I128
sVp1
p24
F0.5
sVEntropy
p25
I0
sS'seq_length'
p26
I50
sS'decay_rate'
p27
F0.98999999999999999
sS'data_path'
p28
S'data/sequence_data/input_0entropy_1_iter_31_markovity.txt'
p29
sS'save_dir'
p30
S'save'
p31
sS'output_path'
p32
S'outputs/output_0entropy_4.txt'
p33
sS'model'
p34
S'lstm'
p35
s.(dp1
S'grad_clip'
p2
F5
sS'vocab_size'
p3
I2
sS'last_epoch_loss'
p4
cnumpy.core.multiarray
scalar
p5
(cnumpy
dtype
p6
(S'f8'
I0
I1
tRp7
(I3
S'<'
NNNI-1
I-1
I0
tbS'\x8dzZ\xc5\x16\xe4\x82?'
tRp8
sVdata_type
p9
V0entropy
p10
sS'lower_bound'
p11
I0
sS'learning_rate'
p12
F0.002
sS'file_size'
p13
I1000000
sS'num_layers'
p14
I4
sS'batch_size'
p15
I50
sS'info_path'
p16
S'data/sequence_data/info_0entropy_2_iter_31_markovity.txt'
p17
sS'num_epochs'
p18
I100
sVmarkovity
p19
I31
sS'epoch_stopped'
p20
I31
sS'save_every'
p21
I1000
sS'init_from'
p22
NsS'rnn_size'
p23
I128
sVp1
p24
F0.5
sVEntropy
p25
I0
sS'seq_length'
p26
I50
sS'decay_rate'
p27
F0.98999999999999999
sS'data_path'
p28
S'data/sequence_data/input_0entropy_2_iter_31_markovity.txt'
p29
sS'save_dir'
p30
S'save'
p31
sS'output_path'
p32
S'outputs/output_0entropy_4.txt'
p33
sS'model'
p34
S'lstm'
p35
s.(dp1
S'grad_clip'
p2
F5
sS'vocab_size'
p3
I2
sS'last_epoch_loss'
p4
cnumpy.core.multiarray
scalar
p5
(cnumpy
dtype
p6
(S'f8'
I0
I1
tRp7
(I3
S'<'
NNNI-1
I-1
I0
tbS'W5\xe7C(W\x80?'
tRp8
sVdata_type
p9
V0entropy
p10
sS'lower_bound'
p11
I0
sS'learning_rate'
p12
F0.002
sS'file_size'
p13
I1000000
sS'num_layers'
p14
I4
sS'batch_size'
p15
I50
sS'info_path'
p16
S'data/sequence_data/info_0entropy_3_iter_31_markovity.txt'
p17
sS'num_epochs'
p18
I100
sVmarkovity
p19
I31
sS'epoch_stopped'
p20
I28
sS'save_every'
p21
I1000
sS'init_from'
p22
NsS'rnn_size'
p23
I128
sVp1
p24
F0.5
sVEntropy
p25
I0
sS'seq_length'
p26
I50
sS'decay_rate'
p27
F0.98999999999999999
sS'data_path'
p28
S'data/sequence_data/input_0entropy_3_iter_31_markovity.txt'
p29
sS'save_dir'
p30
S'save'
p31
sS'output_path'
p32
S'outputs/output_0entropy_4.txt'
p33
sS'model'
p34
S'lstm'
p35
s.(dp1
S'grad_clip'
p2
F5
sS'vocab_size'
p3
I2
sS'last_epoch_loss'
p4
cnumpy.core.multiarray
scalar
p5
(cnumpy
dtype
p6
(S'f8'
I0
I1
tRp7
(I3
S'<'
NNNI-1
I-1
I0
tbS'\xec\x8f\x98\x89\x03\x00\xf0?'
tRp8
sVdata_type
p9
V0entropy
p10
sS'lower_bound'
p11
I0
sS'learning_rate'
p12
F0.002
sS'file_size'
p13
I1000000
sS'num_layers'
p14
I4
sS'batch_size'
p15
I50
sS'info_path'
p16
S'data/sequence_data/info_0entropy_4_iter_31_markovity.txt'
p17
sS'num_epochs'
p18
I100
sVmarkovity
p19
I31
sS'epoch_stopped'
p20
I100
sS'save_every'
p21
I1000
sS'init_from'
p22
NsS'rnn_size'
p23
I128
sVp1
p24
F0.5
sVEntropy
p25
I0
sS'seq_length'
p26
I50
sS'decay_rate'
p27
F0.98999999999999999
sS'data_path'
p28
S'data/sequence_data/input_0entropy_4_iter_31_markovity.txt'
p29
sS'save_dir'
p30
S'save'
p31
sS'output_path'
p32
S'outputs/output_0entropy_4.txt'
p33
sS'model'
p34
S'lstm'
p35
s.(dp1
S'grad_clip'
p2
F5
sS'vocab_size'
p3
I2
sS'last_epoch_loss'
p4
cnumpy.core.multiarray
scalar
p5
(cnumpy
dtype
p6
(S'f8'
I0
I1
tRp7
(I3
S'<'
NNNI-1
I-1
I0
tbS']\xd6JS\xb0+\x84?'
tRp8
sVdata_type
p9
V0entropy
p10
sS'lower_bound'
p11
I0
sS'learning_rate'
p12
F0.002
sS'file_size'
p13
I1000000
sS'num_layers'
p14
I4
sS'batch_size'
p15
I50
sS'info_path'
p16
S'data/sequence_data/info_0entropy_0_iter_41_markovity.txt'
p17
sS'num_epochs'
p18
I100
sVmarkovity
p19
I41
sS'epoch_stopped'
p20
I78
sS'save_every'
p21
I1000
sS'init_from'
p22
NsS'rnn_size'
p23
I128
sVp1
p24
F0.5
sVEntropy
p25
I0
sS'seq_length'
p26
I50
sS'decay_rate'
p27
F0.98999999999999999
sS'data_path'
p28
S'data/sequence_data/input_0entropy_0_iter_41_markovity.txt'
p29
sS'save_dir'
p30
S'save'
p31
sS'output_path'
p32
S'outputs/output_0entropy_4.txt'
p33
sS'model'
p34
S'lstm'
p35
s.(dp1
S'grad_clip'
p2
F5
sS'vocab_size'
p3
I2
sS'last_epoch_loss'
p4
cnumpy.core.multiarray
scalar
p5
(cnumpy
dtype
p6
(S'f8'
I0
I1
tRp7
(I3
S'<'
NNNI-1
I-1
I0
tbS'\xb1\xa1\xa1J\xa1P\x9c?'
tRp8
sVdata_type
p9
V0entropy
p10
sS'lower_bound'
p11
I0
sS'learning_rate'
p12
F0.002
sS'file_size'
p13
I1000000
sS'num_layers'
p14
I4
sS'batch_size'
p15
I50
sS'info_path'
p16
S'data/sequence_data/info_0entropy_1_iter_41_markovity.txt'
p17
sS'num_epochs'
p18
I100
sVmarkovity
p19
I41
sS'epoch_stopped'
p20
I100
sS'save_every'
p21
I1000
sS'init_from'
p22
NsS'rnn_size'
p23
I128
sVp1
p24
F0.5
sVEntropy
p25
I0
sS'seq_length'
p26
I50
sS'decay_rate'
p27
F0.98999999999999999
sS'data_path'
p28
S'data/sequence_data/input_0entropy_1_iter_41_markovity.txt'
p29
sS'save_dir'
p30
S'save'
p31
sS'output_path'
p32
S'outputs/output_0entropy_4.txt'
p33
sS'model'
p34
S'lstm'
p35
s.(dp1
S'grad_clip'
p2
F5
sS'vocab_size'
p3
I2
sS'last_epoch_loss'
p4
cnumpy.core.multiarray
scalar
p5
(cnumpy
dtype
p6
(S'f8'
I0
I1
tRp7
(I3
S'<'
NNNI-1
I-1
I0
tbS'\x83\xc1\xba\x05K\x0b\x83?'
tRp8
sVdata_type
p9
V0entropy
p10
sS'lower_bound'
p11
I0
sS'learning_rate'
p12
F0.002
sS'file_size'
p13
I1000000
sS'num_layers'
p14
I4
sS'batch_size'
p15
I50
sS'info_path'
p16
S'data/sequence_data/info_0entropy_2_iter_41_markovity.txt'
p17
sS'num_epochs'
p18
I100
sVmarkovity
p19
I41
sS'epoch_stopped'
p20
I84
sS'save_every'
p21
I1000
sS'init_from'
p22
NsS'rnn_size'
p23
I128
sVp1
p24
F0.5
sVEntropy
p25
I0
sS'seq_length'
p26
I50
sS'decay_rate'
p27
F0.98999999999999999
sS'data_path'
p28
S'data/sequence_data/input_0entropy_2_iter_41_markovity.txt'
p29
sS'save_dir'
p30
S'save'
p31
sS'output_path'
p32
S'outputs/output_0entropy_4.txt'
p33
sS'model'
p34
S'lstm'
p35
s.