(dp1
S'grad_clip'
p2
F5
sS'vocab_size'
p3
I2
sS'last_epoch_loss'
p4
cnumpy.core.multiarray
scalar
p5
(cnumpy
dtype
p6
(S'f8'
I0
I1
tRp7
(I3
S'<'
NNNI-1
I-1
I0
tbS'v\xc5\x05\xb3w\xde\x88?'
tRp8
sVdata_type
p9
V0entropy
p10
sS'lower_bound'
p11
I0
sS'learning_rate'
p12
F0.0050000000000000001
sS'file_size'
p13
I100000000
sS'num_layers'
p14
I4
sS'batch_size'
p15
I50
sS'info_path'
p16
S'data/sequence_data/info_0entropy_0_iter_20_markovity.txt'
p17
sS'num_epochs'
p18
I80
sVmarkovity
p19
I20
sS'epoch_stopped'
p20
I2
sS'save_every'
p21
I1000
sS'init_from'
p22
NsS'rnn_size'
p23
I128
sVp1
p24
F0.5
sVEntropy
p25
I0
sS'summary_dir'
p26
S'.summary/size_128/num_layers_4/markovity_19/run_0'
p27
sS'seq_length'
p28
I50
sS'decay_rate'
p29
F0.98999999999999999
sS'data_path'
p30
S'data/sequence_data/input_0entropy_0_iter_20_markovity.txt'
p31
sS'save_dir'
p32
S'save'
p33
sS'output_path'
p34
S'outputs/output_0entropy_8_popeye.txt'
p35
sS'model'
p36
S'lstm'
p37
s.(dp1
S'grad_clip'
p2
F5
sS'vocab_size'
p3
I2
sS'last_epoch_loss'
p4
cnumpy.core.multiarray
scalar
p5
(cnumpy
dtype
p6
(S'f8'
I0
I1
tRp7
(I3
S'<'
NNNI-1
I-1
I0
tbS'4\xe8\xf2\xe4\x06\xb9\x9e?'
tRp8
sVdata_type
p9
V0entropy
p10
sS'lower_bound'
p11
I0
sS'learning_rate'
p12
F0.0050000000000000001
sS'file_size'
p13
I100000000
sS'num_layers'
p14
I4
sS'batch_size'
p15
I50
sS'info_path'
p16
S'data/sequence_data/info_0entropy_0_iter_21_markovity.txt'
p17
sS'num_epochs'
p18
I10
sVmarkovity
p19
I21
sS'epoch_stopped'
p20
I1
sS'save_every'
p21
I1000
sS'init_from'
p22
NsS'rnn_size'
p23
I128
sVp1
p24
F0.5
sVEntropy
p25
I0
sS'summary_dir'
p26
S'.summary/size_128/num_layers_4/markovity_20/run_0'
p27
sS'seq_length'
p28
I50
sS'decay_rate'
p29
F0.98999999999999999
sS'data_path'
p30
S'data/sequence_data/input_0entropy_0_iter_21_markovity.txt'
p31
sS'save_dir'
p32
S'save'
p33
sS'output_path'
p34
S'outputs/output_0entropy_8_popeye.txt'
p35
sS'model'
p36
S'lstm'
p37
s.(dp1
S'grad_clip'
p2
F5
sS'vocab_size'
p3
I2
sS'last_epoch_loss'
p4
cnumpy.core.multiarray
scalar
p5
(cnumpy
dtype
p6
(S'f8'
I0
I1
tRp7
(I3
S'<'
NNNI-1
I-1
I0
tbS'\xe3\xfd"\xe3\xdd\xc0\xa7?'
tRp8
sVdata_type
p9
V0entropy
p10
sS'lower_bound'
p11
I0
sS'learning_rate'
p12
F0.0050000000000000001
sS'file_size'
p13
I100000000
sS'num_layers'
p14
I4
sS'batch_size'
p15
I50
sS'info_path'
p16
S'data/sequence_data/info_0entropy_0_iter_21_markovity.txt'
p17
sS'num_epochs'
p18
I10
sVmarkovity
p19
I21
sS'epoch_stopped'
p20
I1
sS'save_every'
p21
I1000
sS'init_from'
p22
NsS'rnn_size'
p23
I256
sVp1
p24
F0.5
sVEntropy
p25
I0
sS'summary_dir'
p26
S'.summary/size_256/num_layers_4/markovity_20/run_0'
p27
sS'seq_length'
p28
I50
sS'decay_rate'
p29
F0.98999999999999999
sS'data_path'
p30
S'data/sequence_data/input_0entropy_0_iter_21_markovity.txt'
p31
sS'save_dir'
p32
S'save'
p33
sS'output_path'
p34
S'outputs/output_0entropy_8_popeye.txt'
p35
sS'model'
p36
S'lstm'
p37
s.(dp1
S'grad_clip'
p2
F5
sS'vocab_size'
p3
I2
sS'last_epoch_loss'
p4
cnumpy.core.multiarray
scalar
p5
(cnumpy
dtype
p6
(S'f8'
I0
I1
tRp7
(I3
S'<'
NNNI-1
I-1
I0
tbS"\xcc'\r\xf8%\x0b\xa7?"
tRp8
sVdata_type
p9
V0entropy
p10
sS'lower_bound'
p11
I0
sS'learning_rate'
p12
F0.0050000000000000001
sS'file_size'
p13
I100000000
sS'num_layers'
p14
I4
sS'batch_size'
p15
I50
sS'info_path'
p16
S'data/sequence_data/info_0entropy_1_iter_21_markovity.txt'
p17
sS'num_epochs'
p18
I10
sVmarkovity
p19
I21
sS'epoch_stopped'
p20
I1
sS'save_every'
p21
I1000
sS'init_from'
p22
NsS'rnn_size'
p23
I128
sVp1
p24
F0.5
sVEntropy
p25
I0
sS'summary_dir'
p26
S'.summary/size_128/num_layers_4/markovity_20/run_1'
p27
sS'seq_length'
p28
I50
sS'decay_rate'
p29
F0.98999999999999999
sS'data_path'
p30
S'data/sequence_data/input_0entropy_1_iter_21_markovity.txt'
p31
sS'save_dir'
p32
S'save'
p33
sS'output_path'
p34
S'outputs/output_0entropy_8_popeye.txt'
p35
sS'model'
p36
S'lstm'
p37
s.(dp1
S'grad_clip'
p2
F5
sS'vocab_size'
p3
I2
sS'last_epoch_loss'
p4
cnumpy.core.multiarray
scalar
p5
(cnumpy
dtype
p6
(S'f8'
I0
I1
tRp7
(I3
S'<'
NNNI-1
I-1
I0
tbS"':\x15uy\xbe\xa3?"
tRp8
sVdata_type
p9
V0entropy
p10
sS'lower_bound'
p11
I0
sS'learning_rate'
p12
F0.0050000000000000001
sS'file_size'
p13
I100000000
sS'num_layers'
p14
I4
sS'batch_size'
p15
I50
sS'info_path'
p16
S'data/sequence_data/info_0entropy_1_iter_21_markovity.txt'
p17
sS'num_epochs'
p18
I10
sVmarkovity
p19
I21
sS'epoch_stopped'
p20
I1
sS'save_every'
p21
I1000
sS'init_from'
p22
NsS'rnn_size'
p23
I256
sVp1
p24
F0.5
sVEntropy
p25
I0
sS'summary_dir'
p26
S'.summary/size_256/num_layers_4/markovity_20/run_1'
p27
sS'seq_length'
p28
I50
sS'decay_rate'
p29
F0.98999999999999999
sS'data_path'
p30
S'data/sequence_data/input_0entropy_1_iter_21_markovity.txt'
p31
sS'save_dir'
p32
S'save'
p33
sS'output_path'
p34
S'outputs/output_0entropy_8_popeye.txt'
p35
sS'model'
p36
S'lstm'
p37
s.(dp1
S'grad_clip'
p2
F5
sS'vocab_size'
p3
I2
sS'last_epoch_loss'
p4
cnumpy.core.multiarray
scalar
p5
(cnumpy
dtype
p6
(S'f8'
I0
I1
tRp7
(I3
S'<'
NNNI-1
I-1
I0
tbS'G\x89\x80cpD\xa7?'
tRp8
sVdata_type
p9
V0entropy
p10
sS'lower_bound'
p11
I0
sS'learning_rate'
p12
F0.0050000000000000001
sS'file_size'
p13
I100000000
sS'num_layers'
p14
I4
sS'batch_size'
p15
I50
sS'info_path'
p16
S'data/sequence_data/info_0entropy_0_iter_23_markovity.txt'
p17
sS'num_epochs'
p18
I10
sVmarkovity
p19
I23
sS'epoch_stopped'
p20
I1
sS'save_every'
p21
I1000
sS'init_from'
p22
NsS'rnn_size'
p23
I128
sVp1
p24
F0.5
sVEntropy
p25
I0
sS'summary_dir'
p26
S'.summary/size_128/num_layers_4/markovity_22/run_0'
p27
sS'seq_length'
p28
I50
sS'decay_rate'
p29
F0.98999999999999999
sS'data_path'
p30
S'data/sequence_data/input_0entropy_0_iter_23_markovity.txt'
p31
sS'save_dir'
p32
S'save'
p33
sS'output_path'
p34
S'outputs/output_0entropy_8_popeye.txt'
p35
sS'model'
p36
S'lstm'
p37
s.(dp1
S'grad_clip'
p2
F5
sS'vocab_size'
p3
I2
sS'last_epoch_loss'
p4
cnumpy.core.multiarray
scalar
p5
(cnumpy
dtype
p6
(S'f8'
I0
I1
tRp7
(I3
S'<'
NNNI-1
I-1
I0
tbS'Cy\xd2\x9fs\x00\xf0?'
tRp8
sVdata_type
p9
V0entropy
p10
sS'lower_bound'
p11
I0
sS'learning_rate'
p12
F0.0050000000000000001
sS'file_size'
p13
I100000000
sS'num_layers'
p14
I4
sS'batch_size'
p15
I50
sS'info_path'
p16
S'data/sequence_data/info_0entropy_0_iter_23_markovity.txt'
p17
sS'num_epochs'
p18
I10
sVmarkovity
p19
I23
sS'epoch_stopped'
p20
I10
sS'save_every'
p21
I1000
sS'init_from'
p22
NsS'rnn_size'
p23
I256
sVp1
p24
F0.5
sVEntropy
p25
I0
sS'summary_dir'
p26
S'.summary/size_256/num_layers_4/markovity_22/run_0'
p27
sS'seq_length'
p28
I50
sS'decay_rate'
p29
F0.98999999999999999
sS'data_path'
p30
S'data/sequence_data/input_0entropy_0_iter_23_markovity.txt'
p31
sS'save_dir'
p32
S'save'
p33
sS'output_path'
p34
S'outputs/output_0entropy_8_popeye.txt'
p35
sS'model'
p36
S'lstm'
p37
s.(dp1
S'grad_clip'
p2
F5
sS'vocab_size'
p3
I2
sS'last_epoch_loss'
p4
cnumpy.core.multiarray
scalar
p5
(cnumpy
dtype
p6
(S'f8'
I0
I1
tRp7
(I3
S'<'
NNNI-1
I-1
I0
tbS'V\xbd\xfb\x11Y\x00\xf0?'
tRp8
sVdata_type
p9
V0entropy
p10
sS'lower_bound'
p11
I0
sS'learning_rate'
p12
F0.0050000000000000001
sS'file_size'
p13
I100000000
sS'num_layers'
p14
I4
sS'batch_size'
p15
I50
sS'info_path'
p16
S'data/sequence_data/info_0entropy_1_iter_23_markovity.txt'
p17
sS'num_epochs'
p18
I10
sVmarkovity
p19
I23
sS'epoch_stopped'
p20
I10
sS'save_every'
p21
I1000
sS'init_from'
p22
NsS'rnn_size'
p23
I128
sVp1
p24
F0.5
sVEntropy
p25
I0
sS'summary_dir'
p26
S'.summary/size_128/num_layers_4/markovity_22/run_1'
p27
sS'seq_length'
p28
I50
sS'decay_rate'
p29
F0.98999999999999999
sS'data_path'
p30
S'data/sequence_data/input_0entropy_1_iter_23_markovity.txt'
p31
sS'save_dir'
p32
S'save'
p33
sS'output_path'
p34
S'outputs/output_0entropy_8_popeye.txt'
p35
sS'model'
p36
S'lstm'
p37
s.(dp1
S'grad_clip'
p2
F5
sS'vocab_size'
p3
I2
sS'last_epoch_loss'
p4
cnumpy.core.multiarray
scalar
p5
(cnumpy
dtype
p6
(S'f8'
I0
I1
tRp7
(I3
S'<'
NNNI-1
I-1
I0
tbS'^P`\x06#\x03\xf0?'
tRp8
sVdata_type
p9
V0entropy
p10
sS'lower_bound'
p11
I0
sS'learning_rate'
p12
F0.0050000000000000001
sS'file_size'
p13
I100000000
sS'num_layers'
p14
I4
sS'batch_size'
p15
I50
sS'info_path'
p16
S'data/sequence_data/info_0entropy_1_iter_23_markovity.txt'
p17
sS'num_epochs'
p18
I10
sVmarkovity
p19
I23
sS'epoch_stopped'
p20
I10
sS'save_every'
p21
I1000
sS'init_from'
p22
NsS'rnn_size'
p23
I256
sVp1
p24
F0.5
sVEntropy
p25
I0
sS'summary_dir'
p26
S'.summary/size_256/num_layers_4/markovity_22/run_1'
p27
sS'seq_length'
p28
I50
sS'decay_rate'
p29
F0.98999999999999999
sS'data_path'
p30
S'data/sequence_data/input_0entropy_1_iter_23_markovity.txt'
p31
sS'save_dir'
p32
S'save'
p33
sS'output_path'
p34
S'outputs/output_0entropy_8_popeye.txt'
p35
sS'model'
p36
S'lstm'
p37
s.(dp1
S'grad_clip'
p2
F5
sS'vocab_size'
p3
I2
sS'last_epoch_loss'
p4
cnumpy.core.multiarray
scalar
p5
(cnumpy
dtype
p6
(S'f8'
I0
I1
tRp7
(I3
S'<'
NNNI-1
I-1
I0
tbS'\xe9*\xdc\\\xae\x00\xf0?'
tRp8
sVdata_type
p9
V0entropy
p10
sS'lower_bound'
p11
I0
sS'learning_rate'
p12
F0.0050000000000000001
sS'file_size'
p13
I100000000
sS'num_layers'
p14
I4
sS'batch_size'
p15
I50
sS'info_path'
p16
S'data/sequence_data/info_0entropy_0_iter_25_markovity.txt'
p17
sS'num_epochs'
p18
I10
sVmarkovity
p19
I25
sS'epoch_stopped'
p20
I10
sS'save_every'
p21
I1000
sS'init_from'
p22
NsS'rnn_size'
p23
I128
sVp1
p24
F0.5
sVEntropy
p25
I0
sS'summary_dir'
p26
S'.summary/size_128/num_layers_4/markovity_24/run_0'
p27
sS'seq_length'
p28
I50
sS'decay_rate'
p29
F0.98999999999999999
sS'data_path'
p30
S'data/sequence_data/input_0entropy_0_iter_25_markovity.txt'
p31
sS'save_dir'
p32
S'save'
p33
sS'output_path'
p34
S'outputs/output_0entropy_8_popeye.txt'
p35
sS'model'
p36
S'lstm'
p37
s.