(dp1
S'grad_clip'
p2
F5
sS'vocab_size'
p3
I1
sS'last_epoch_loss'
p4
cnumpy.core.multiarray
scalar
p5
(cnumpy
dtype
p6
(S'f8'
I0
I1
tRp7
(I3
S'<'
NNNI-1
I-1
I0
tbS'\x00\x00\x00\x00\x00\x00\x00\x00'
tRp8
sVdata_type
p9
V0entropy
p10
sS'lower_bound'
p11
I0
sS'learning_rate'
p12
F0.002
sS'file_size'
p13
I100000
sS'num_layers'
p14
I2
sS'batch_size'
p15
I50
sS'info_path'
p16
S'data/sequence_data/info_0entropy_1_markovity.txt'
p17
sS'num_epochs'
p18
I50
sVmarkovity
p19
I1
sS'epoch_stopped'
p20
I1
sS'save_every'
p21
I1000
sS'init_from'
p22
NsS'rnn_size'
p23
I128
sVp1
p24
F0.5
sVEntropy
p25
I0
sS'seq_length'
p26
I50
sS'decay_rate'
p27
F0.98999999999999999
sS'data_path'
p28
S'data/sequence_data/input_0entropy_1_markovity.txt'
p29
sS'save_dir'
p30
S'save'
p31
sS'output_path'
p32
S'outputs/output_0entropy.txt'
p33
sS'model'
p34
S'lstm'
p35
s.(dp1
S'grad_clip'
p2
F5
sS'vocab_size'
p3
I1
sS'last_epoch_loss'
p4
cnumpy.core.multiarray
scalar
p5
(cnumpy
dtype
p6
(S'f8'
I0
I1
tRp7
(I3
S'<'
NNNI-1
I-1
I0
tbS'\x00\x00\x00\x00\x00\x00\x00\x00'
tRp8
sVdata_type
p9
V0entropy
p10
sS'lower_bound'
p11
I0
sS'learning_rate'
p12
F0.002
sS'file_size'
p13
I100000
sS'num_layers'
p14
I2
sS'batch_size'
p15
I50
sS'info_path'
p16
S'data/sequence_data/info_0entropy_2_markovity.txt'
p17
sS'num_epochs'
p18
I50
sVmarkovity
p19
I2
sS'epoch_stopped'
p20
I1
sS'save_every'
p21
I1000
sS'init_from'
p22
NsS'rnn_size'
p23
I128
sVp1
p24
F0.5
sVEntropy
p25
I0
sS'seq_length'
p26
I50
sS'decay_rate'
p27
F0.98999999999999999
sS'data_path'
p28
S'data/sequence_data/input_0entropy_2_markovity.txt'
p29
sS'save_dir'
p30
S'save'
p31
sS'output_path'
p32
S'outputs/output_0entropy.txt'
p33
sS'model'
p34
S'lstm'
p35
s.(dp1
S'grad_clip'
p2
F5
sS'vocab_size'
p3
I2
sS'last_epoch_loss'
p4
cnumpy.core.multiarray
scalar
p5
(cnumpy
dtype
p6
(S'f8'
I0
I1
tRp7
(I3
S'<'
NNNI-1
I-1
I0
tbS'\x8cL\xb9\xf9\xdaP\x81?'
tRp8
sVdata_type
p9
V0entropy
p10
sS'lower_bound'
p11
I0
sS'learning_rate'
p12
F0.002
sS'file_size'
p13
I100000
sS'num_layers'
p14
I2
sS'batch_size'
p15
I50
sS'info_path'
p16
S'data/sequence_data/info_0entropy_3_markovity.txt'
p17
sS'num_epochs'
p18
I50
sVmarkovity
p19
I3
sS'epoch_stopped'
p20
I4
sS'save_every'
p21
I1000
sS'init_from'
p22
NsS'rnn_size'
p23
I128
sVp1
p24
F0.5
sVEntropy
p25
I0
sS'seq_length'
p26
I50
sS'decay_rate'
p27
F0.98999999999999999
sS'data_path'
p28
S'data/sequence_data/input_0entropy_3_markovity.txt'
p29
sS'save_dir'
p30
S'save'
p31
sS'output_path'
p32
S'outputs/output_0entropy.txt'
p33
sS'model'
p34
S'lstm'
p35
s.(dp1
S'grad_clip'
p2
F5
sS'vocab_size'
p3
I2
sS'last_epoch_loss'
p4
cnumpy.core.multiarray
scalar
p5
(cnumpy
dtype
p6
(S'f8'
I0
I1
tRp7
(I3
S'<'
NNNI-1
I-1
I0
tbS'\xbc\xcbR,\x1a\x83\x82?'
tRp8
sVdata_type
p9
V0entropy
p10
sS'lower_bound'
p11
I0
sS'learning_rate'
p12
F0.002
sS'file_size'
p13
I100000
sS'num_layers'
p14
I2
sS'batch_size'
p15
I50
sS'info_path'
p16
S'data/sequence_data/info_0entropy_4_markovity.txt'
p17
sS'num_epochs'
p18
I50
sVmarkovity
p19
I4
sS'epoch_stopped'
p20
I6
sS'save_every'
p21
I1000
sS'init_from'
p22
NsS'rnn_size'
p23
I128
sVp1
p24
F0.5
sVEntropy
p25
I0
sS'seq_length'
p26
I50
sS'decay_rate'
p27
F0.98999999999999999
sS'data_path'
p28
S'data/sequence_data/input_0entropy_4_markovity.txt'
p29
sS'save_dir'
p30
S'save'
p31
sS'output_path'
p32
S'outputs/output_0entropy.txt'
p33
sS'model'
p34
S'lstm'
p35
s.(dp1
S'grad_clip'
p2
F5
sS'vocab_size'
p3
I2
sS'last_epoch_loss'
p4
cnumpy.core.multiarray
scalar
p5
(cnumpy
dtype
p6
(S'f8'
I0
I1
tRp7
(I3
S'<'
NNNI-1
I-1
I0
tbS'\x13>\xfcE;\xf0\x82?'
tRp8
sVdata_type
p9
V0entropy
p10
sS'lower_bound'
p11
I0
sS'learning_rate'
p12
F0.002
sS'file_size'
p13
I100000
sS'num_layers'
p14
I2
sS'batch_size'
p15
I50
sS'info_path'
p16
S'data/sequence_data/info_0entropy_5_markovity.txt'
p17
sS'num_epochs'
p18
I50
sVmarkovity
p19
I5
sS'epoch_stopped'
p20
I7
sS'save_every'
p21
I1000
sS'init_from'
p22
NsS'rnn_size'
p23
I128
sVp1
p24
F0.5
sVEntropy
p25
I0
sS'seq_length'
p26
I50
sS'decay_rate'
p27
F0.98999999999999999
sS'data_path'
p28
S'data/sequence_data/input_0entropy_5_markovity.txt'
p29
sS'save_dir'
p30
S'save'
p31
sS'output_path'
p32
S'outputs/output_0entropy.txt'
p33
sS'model'
p34
S'lstm'
p35
s.(dp1
S'grad_clip'
p2
F5
sS'vocab_size'
p3
I2
sS'last_epoch_loss'
p4
cnumpy.core.multiarray
scalar
p5
(cnumpy
dtype
p6
(S'f8'
I0
I1
tRp7
(I3
S'<'
NNNI-1
I-1
I0
tbS"_/\xc5'/\x01\x83?"
tRp8
sVdata_type
p9
V0entropy
p10
sS'lower_bound'
p11
I0
sS'learning_rate'
p12
F0.002
sS'file_size'
p13
I100000
sS'num_layers'
p14
I2
sS'batch_size'
p15
I50
sS'info_path'
p16
S'data/sequence_data/info_0entropy_6_markovity.txt'
p17
sS'num_epochs'
p18
I50
sVmarkovity
p19
I6
sS'epoch_stopped'
p20
I9
sS'save_every'
p21
I1000
sS'init_from'
p22
NsS'rnn_size'
p23
I128
sVp1
p24
F0.5
sVEntropy
p25
I0
sS'seq_length'
p26
I50
sS'decay_rate'
p27
F0.98999999999999999
sS'data_path'
p28
S'data/sequence_data/input_0entropy_6_markovity.txt'
p29
sS'save_dir'
p30
S'save'
p31
sS'output_path'
p32
S'outputs/output_0entropy.txt'
p33
sS'model'
p34
S'lstm'
p35
s.(dp1
S'grad_clip'
p2
F5
sS'vocab_size'
p3
I2
sS'last_epoch_loss'
p4
cnumpy.core.multiarray
scalar
p5
(cnumpy
dtype
p6
(S'f8'
I0
I1
tRp7
(I3
S'<'
NNNI-1
I-1
I0
tbS'\xfa\xe6H\x95\xb5\x9d\x81?'
tRp8
sVdata_type
p9
V0entropy
p10
sS'lower_bound'
p11
I0
sS'learning_rate'
p12
F0.002
sS'file_size'
p13
I100000
sS'num_layers'
p14
I2
sS'batch_size'
p15
I50
sS'info_path'
p16
S'data/sequence_data/info_0entropy_7_markovity.txt'
p17
sS'num_epochs'
p18
I50
sVmarkovity
p19
I7
sS'epoch_stopped'
p20
I11
sS'save_every'
p21
I1000
sS'init_from'
p22
NsS'rnn_size'
p23
I128
sVp1
p24
F0.5
sVEntropy
p25
I0
sS'seq_length'
p26
I50
sS'decay_rate'
p27
F0.98999999999999999
sS'data_path'
p28
S'data/sequence_data/input_0entropy_7_markovity.txt'
p29
sS'save_dir'
p30
S'save'
p31
sS'output_path'
p32
S'outputs/output_0entropy.txt'
p33
sS'model'
p34
S'lstm'
p35
s.(dp1
S'grad_clip'
p2
F5
sS'vocab_size'
p3
I2
sS'last_epoch_loss'
p4
cnumpy.core.multiarray
scalar
p5
(cnumpy
dtype
p6
(S'f8'
I0
I1
tRp7
(I3
S'<'
NNNI-1
I-1
I0
tbS'\x08\x9b\x95\xe8j\xbc~?'
tRp8
sVdata_type
p9
V0entropy
p10
sS'lower_bound'
p11
I0
sS'learning_rate'
p12
F0.002
sS'file_size'
p13
I100000
sS'num_layers'
p14
I2
sS'batch_size'
p15
I50
sS'info_path'
p16
S'data/sequence_data/info_0entropy_8_markovity.txt'
p17
sS'num_epochs'
p18
I50
sVmarkovity
p19
I8
sS'epoch_stopped'
p20
I13
sS'save_every'
p21
I1000
sS'init_from'
p22
NsS'rnn_size'
p23
I128
sVp1
p24
F0.5
sVEntropy
p25
I0
sS'seq_length'
p26
I50
sS'decay_rate'
p27
F0.98999999999999999
sS'data_path'
p28
S'data/sequence_data/input_0entropy_8_markovity.txt'
p29
sS'save_dir'
p30
S'save'
p31
sS'output_path'
p32
S'outputs/output_0entropy.txt'
p33
sS'model'
p34
S'lstm'
p35
s.(dp1
S'grad_clip'
p2
F5
sS'vocab_size'
p3
I2
sS'last_epoch_loss'
p4
cnumpy.core.multiarray
scalar
p5
(cnumpy
dtype
p6
(S'f8'
I0
I1
tRp7
(I3
S'<'
NNNI-1
I-1
I0
tbS'q\\N\xad\x9b/\x83?'
tRp8
sVdata_type
p9
V0entropy
p10
sS'lower_bound'
p11
I0
sS'learning_rate'
p12
F0.002
sS'file_size'
p13
I100000
sS'num_layers'
p14
I2
sS'batch_size'
p15
I50
sS'info_path'
p16
S'data/sequence_data/info_0entropy_9_markovity.txt'
p17
sS'num_epochs'
p18
I50
sVmarkovity
p19
I9
sS'epoch_stopped'
p20
I9
sS'save_every'
p21
I1000
sS'init_from'
p22
NsS'rnn_size'
p23
I128
sVp1
p24
F0.5
sVEntropy
p25
I0
sS'seq_length'
p26
I50
sS'decay_rate'
p27
F0.98999999999999999
sS'data_path'
p28
S'data/sequence_data/input_0entropy_9_markovity.txt'
p29
sS'save_dir'
p30
S'save'
p31
sS'output_path'
p32
S'outputs/output_0entropy.txt'
p33
sS'model'
p34
S'lstm'
p35
s.(dp1
S'grad_clip'
p2
F5
sS'vocab_size'
p3
I2
sS'last_epoch_loss'
p4
cnumpy.core.multiarray
scalar
p5
(cnumpy
dtype
p6
(S'f8'
I0
I1
tRp7
(I3
S'<'
NNNI-1
I-1
I0
tbS'\n\xa5\x9e\x996\xec\x81?'
tRp8
sVdata_type
p9
V0entropy
p10
sS'lower_bound'
p11
I0
sS'learning_rate'
p12
F0.002
sS'file_size'
p13
I100000
sS'num_layers'
p14
I2
sS'batch_size'
p15
I50
sS'info_path'
p16
S'data/sequence_data/info_0entropy_10_markovity.txt'
p17
sS'num_epochs'
p18
I50
sVmarkovity
p19
I10
sS'epoch_stopped'
p20
I22
sS'save_every'
p21
I1000
sS'init_from'
p22
NsS'rnn_size'
p23
I128
sVp1
p24
F0.5
sVEntropy
p25
I0
sS'seq_length'
p26
I50
sS'decay_rate'
p27
F0.98999999999999999
sS'data_path'
p28
S'data/sequence_data/input_0entropy_10_markovity.txt'
p29
sS'save_dir'
p30
S'save'
p31
sS'output_path'
p32
S'outputs/output_0entropy.txt'
p33
sS'model'
p34
S'lstm'
p35
s.(dp1
S'grad_clip'
p2
F5
sS'vocab_size'
p3
I2
sS'last_epoch_loss'
p4
cnumpy.core.multiarray
scalar
p5
(cnumpy
dtype
p6
(S'f8'
I0
I1
tRp7
(I3
S'<'
NNNI-1
I-1
I0
tbS'W_r\xaa\xaeO\x84?'
tRp8
sVdata_type
p9
V0entropy
p10
sS'lower_bound'
p11
I0
sS'learning_rate'
p12
F0.002
sS'file_size'
p13
I100000
sS'num_layers'
p14
I2
sS'batch_size'
p15
I50
sS'info_path'
p16
S'data/sequence_data/info_0entropy_11_markovity.txt'
p17
sS'num_epochs'
p18
I50
sVmarkovity
p19
I11
sS'epoch_stopped'
p20
I22
sS'save_every'
p21
I1000
sS'init_from'
p22
NsS'rnn_size'
p23
I128
sVp1
p24
F0.5
sVEntropy
p25
I0
sS'seq_length'
p26
I50
sS'decay_rate'
p27
F0.98999999999999999
sS'data_path'
p28
S'data/sequence_data/input_0entropy_11_markovity.txt'
p29
sS'save_dir'
p30
S'save'
p31
sS'output_path'
p32
S'outputs/output_0entropy.txt'
p33
sS'model'
p34
S'lstm'
p35
s.(dp1
S'grad_clip'
p2
F5
sS'vocab_size'
p3
I2
sS'last_epoch_loss'
p4
cnumpy.core.multiarray
scalar
p5
(cnumpy
dtype
p6
(S'f8'
I0
I1
tRp7
(I3
S'<'
NNNI-1
I-1
I0
tbS"?W'\xb0'b\x83?"
tRp8
sVdata_type
p9
V0entropy
p10
sS'lower_bound'
p11
I0
sS'learning_rate'
p12
F0.002
sS'file_size'
p13
I100000
sS'num_layers'
p14
I2
sS'batch_size'
p15
I50
sS'info_path'
p16
S'data/sequence_data/info_0entropy_12_markovity.txt'
p17
sS'num_epochs'
p18
I50
sVmarkovity
p19
I12
sS'epoch_stopped'
p20
I28
sS'save_every'
p21
I1000
sS'init_from'
p22
NsS'rnn_size'
p23
I128
sVp1
p24
F0.5
sVEntropy
p25
I0
sS'seq_length'
p26
I50
sS'decay_rate'
p27
F0.98999999999999999
sS'data_path'
p28
S'data/sequence_data/input_0entropy_12_markovity.txt'
p29
sS'save_dir'
p30
S'save'
p31
sS'output_path'
p32
S'outputs/output_0entropy.txt'
p33
sS'model'
p34
S'lstm'
p35
s.(dp1
S'grad_clip'
p2
F5
sS'vocab_size'
p3
I2
sS'last_epoch_loss'
p4
cnumpy.core.multiarray
scalar
p5
(cnumpy
dtype
p6
(S'f8'
I0
I1
tRp7
(I3
S'<'
NNNI-1
I-1
I0
tbS'"\x8c\xfe\xeem`\x82?'
tRp8
sVdata_type
p9
V0entropy
p10
sS'lower_bound'
p11
I0
sS'learning_rate'
p12
F0.002
sS'file_size'
p13
I100000
sS'num_layers'
p14
I2
sS'batch_size'
p15
I50
sS'info_path'
p16
S'data/sequence_data/info_0entropy_13_markovity.txt'
p17
sS'num_epochs'
p18
I50
sVmarkovity
p19
I13
sS'epoch_stopped'
p20
I27
sS'save_every'
p21
I1000
sS'init_from'
p22
NsS'rnn_size'
p23
I128
sVp1
p24
F0.5
sVEntropy
p25
I0
sS'seq_length'
p26
I50
sS'decay_rate'
p27
F0.98999999999999999
sS'data_path'
p28
S'data/sequence_data/input_0entropy_13_markovity.txt'
p29
sS'save_dir'
p30
S'save'
p31
sS'output_path'
p32
S'outputs/output_0entropy.txt'
p33
sS'model'
p34
S'lstm'
p35
s.(dp1
S'grad_clip'
p2
F5
sS'vocab_size'
p3
I2
sS'last_epoch_loss'
p4
cnumpy.core.multiarray
scalar
p5
(cnumpy
dtype
p6
(S'f8'
I0
I1
tRp7
(I3
S'<'
NNNI-1
I-1
I0
tbS'w@\x803J\xb2\x81?'
tRp8
sVdata_type
p9
V0entropy
p10
sS'lower_bound'
p11
I0
sS'learning_rate'
p12
F0.002
sS'file_size'
p13
I100000
sS'num_layers'
p14
I2
sS'batch_size'
p15
I50
sS'info_path'
p16
S'data/sequence_data/info_0entropy_14_markovity.txt'
p17
sS'num_epochs'
p18
I50
sVmarkovity
p19
I14
sS'epoch_stopped'
p20
I33
sS'save_every'
p21
I1000
sS'init_from'
p22
NsS'rnn_size'
p23
I128
sVp1
p24
F0.5
sVEntropy
p25
I0
sS'seq_length'
p26
I50
sS'decay_rate'
p27
F0.98999999999999999
sS'data_path'
p28
S'data/sequence_data/input_0entropy_14_markovity.txt'
p29
sS'save_dir'
p30
S'save'
p31
sS'output_path'
p32
S'outputs/output_0entropy.txt'
p33
sS'model'
p34
S'lstm'
p35
s.(dp1
S'grad_clip'
p2
F5
sS'vocab_size'
p3
I2
sS'last_epoch_loss'
p4
cnumpy.core.multiarray
scalar
p5
(cnumpy
dtype
p6
(S'f8'
I0
I1
tRp7
(I3
S'<'
NNNI-1
I-1
I0
tbS'\xf3\xcdy\xba\x80\xe2\x80?'
tRp8
sVdata_type
p9
V0entropy
p10
sS'lower_bound'
p11
I0
sS'learning_rate'
p12
F0.002
sS'file_size'
p13
I100000
sS'num_layers'
p14
I2
sS'batch_size'
p15
I50
sS'info_path'
p16
S'data/sequence_data/info_0entropy_15_markovity.txt'
p17
sS'num_epochs'
p18
I50
sVmarkovity
p19
I15
sS'epoch_stopped'
p20
I37
sS'save_every'
p21
I1000
sS'init_from'
p22
NsS'rnn_size'
p23
I128
sVp1
p24
F0.5
sVEntropy
p25
I0
sS'seq_length'
p26
I50
sS'decay_rate'
p27
F0.98999999999999999
sS'data_path'
p28
S'data/sequence_data/input_0entropy_15_markovity.txt'
p29
sS'save_dir'
p30
S'save'
p31
sS'output_path'
p32
S'outputs/output_0entropy.txt'
p33
sS'model'
p34
S'lstm'
p35
s.(dp1
S'grad_clip'
p2
F5
sS'vocab_size'
p3
I2
sS'last_epoch_loss'
p4
cnumpy.core.multiarray
scalar
p5
(cnumpy
dtype
p6
(S'f8'
I0
I1
tRp7
(I3
S'<'
NNNI-1
I-1
I0
tbS'!u\xbeG\xb7c\x83?'
tRp8
sVdata_type
p9
V0entropy
p10
sS'lower_bound'
p11
I0
sS'learning_rate'
p12
F0.002
sS'file_size'
p13
I100000
sS'num_layers'
p14
I2
sS'batch_size'
p15
I50
sS'info_path'
p16
S'data/sequence_data/info_0entropy_16_markovity.txt'
p17
sS'num_epochs'
p18
I50
sVmarkovity
p19
I16
sS'epoch_stopped'
p20
I20
sS'save_every'
p21
I1000
sS'init_from'
p22
NsS'rnn_size'
p23
I128
sVp1
p24
F0.5
sVEntropy
p25
I0
sS'seq_length'
p26
I50
sS'decay_rate'
p27
F0.98999999999999999
sS'data_path'
p28
S'data/sequence_data/input_0entropy_16_markovity.txt'
p29
sS'save_dir'
p30
S'save'
p31
sS'output_path'
p32
S'outputs/output_0entropy.txt'
p33
sS'model'
p34
S'lstm'
p35
s.(dp1
S'grad_clip'
p2
F5
sS'vocab_size'
p3
I2
sS'last_epoch_loss'
p4
cnumpy.core.multiarray
scalar
p5
(cnumpy
dtype
p6
(S'f8'
I0
I1
tRp7
(I3
S'<'
NNNI-1
I-1
I0
tbS'\xf5zH\xac-H\x84?'
tRp8
sVdata_type
p9
V0entropy
p10
sS'lower_bound'
p11
I0
sS'learning_rate'
p12
F0.002
sS'file_size'
p13
I100000
sS'num_layers'
p14
I2
sS'batch_size'
p15
I50
sS'info_path'
p16
S'data/sequence_data/info_0entropy_17_markovity.txt'
p17
sS'num_epochs'
p18
I50
sVmarkovity
p19
I17
sS'epoch_stopped'
p20
I28
sS'save_every'
p21
I1000
sS'init_from'
p22
NsS'rnn_size'
p23
I128
sVp1
p24
F0.5
sVEntropy
p25
I0
sS'seq_length'
p26
I50
sS'decay_rate'
p27
F0.98999999999999999
sS'data_path'
p28
S'data/sequence_data/input_0entropy_17_markovity.txt'
p29
sS'save_dir'
p30
S'save'
p31
sS'output_path'
p32
S'outputs/output_0entropy.txt'
p33
sS'model'
p34
S'lstm'
p35
s.(dp1
S'grad_clip'
p2
F5
sS'vocab_size'
p3
I2
sS'last_epoch_loss'
p4
cnumpy.core.multiarray
scalar
p5
(cnumpy
dtype
p6
(S'f8'
I0
I1
tRp7
(I3
S'<'
NNNI-1
I-1
I0
tbS'\xce\xe2\xe0\xb4n]\x83?'
tRp8
sVdata_type
p9
V0entropy
p10
sS'lower_bound'
p11
I0
sS'learning_rate'
p12
F0.002
sS'file_size'
p13
I100000
sS'num_layers'
p14
I2
sS'batch_size'
p15
I50
sS'info_path'
p16
S'data/sequence_data/info_0entropy_18_markovity.txt'
p17
sS'num_epochs'
p18
I50
sVmarkovity
p19
I18
sS'epoch_stopped'
p20
I43
sS'save_every'
p21
I1000
sS'init_from'
p22
NsS'rnn_size'
p23
I128
sVp1
p24
F0.5
sVEntropy
p25
I0
sS'seq_length'
p26
I50
sS'decay_rate'
p27
F0.98999999999999999
sS'data_path'
p28
S'data/sequence_data/input_0entropy_18_markovity.txt'
p29
sS'save_dir'
p30
S'save'
p31
sS'output_path'
p32
S'outputs/output_0entropy.txt'
p33
sS'model'
p34
S'lstm'
p35
s.(dp1
S'grad_clip'
p2
F5
sS'vocab_size'
p3
I2
sS'last_epoch_loss'
p4
cnumpy.core.multiarray
scalar
p5
(cnumpy
dtype
p6
(S'f8'
I0
I1
tRp7
(I3
S'<'
NNNI-1
I-1
I0
tbS'\xf1\xc55\xdf\x84`\x97?'
tRp8
sVdata_type
p9
V0entropy
p10
sS'lower_bound'
p11
I0
sS'learning_rate'
p12
F0.002
sS'file_size'
p13
I100000
sS'num_layers'
p14
I2
sS'batch_size'
p15
I50
sS'info_path'
p16
S'data/sequence_data/info_0entropy_19_markovity.txt'
p17
sS'num_epochs'
p18
I50
sVmarkovity
p19
I19
sS'epoch_stopped'
p20
I50
sS'save_every'
p21
I1000
sS'init_from'
p22
NsS'rnn_size'
p23
I128
sVp1
p24
F0.5
sVEntropy
p25
I0
sS'seq_length'
p26
I50
sS'decay_rate'
p27
F0.98999999999999999
sS'data_path'
p28
S'data/sequence_data/input_0entropy_19_markovity.txt'
p29
sS'save_dir'
p30
S'save'
p31
sS'output_path'
p32
S'outputs/output_0entropy.txt'
p33
sS'model'
p34
S'lstm'
p35
s.(dp1
S'grad_clip'
p2
F5
sS'vocab_size'
p3
I2
sS'last_epoch_loss'
p4
cnumpy.core.multiarray
scalar
p5
(cnumpy
dtype
p6
(S'f8'
I0
I1
tRp7
(I3
S'<'
NNNI-1
I-1
I0
tbS'\xe3J\xcc\xf2/\xd7\x95?'
tRp8
sVdata_type
p9
V0entropy
p10
sS'lower_bound'
p11
I0
sS'learning_rate'
p12
F0.002
sS'file_size'
p13
I100000
sS'num_layers'
p14
I2
sS'batch_size'
p15
I50
sS'info_path'
p16
S'data/sequence_data/info_0entropy_20_markovity.txt'
p17
sS'num_epochs'
p18
I50
sVmarkovity
p19
I20
sS'epoch_stopped'
p20
I50
sS'save_every'
p21
I1000
sS'init_from'
p22
NsS'rnn_size'
p23
I128
sVp1
p24
F0.5
sVEntropy
p25
I0
sS'seq_length'
p26
I50
sS'decay_rate'
p27
F0.98999999999999999
sS'data_path'
p28
S'data/sequence_data/input_0entropy_20_markovity.txt'
p29
sS'save_dir'
p30
S'save'
p31
sS'output_path'
p32
S'outputs/output_0entropy.txt'
p33
sS'model'
p34
S'lstm'
p35
s.(dp1
S'grad_clip'
p2
F5
sS'vocab_size'
p3
I2
sS'last_epoch_loss'
p4
cnumpy.core.multiarray
scalar
p5
(cnumpy
dtype
p6
(S'f8'
I0
I1
tRp7
(I3
S'<'
NNNI-1
I-1
I0
tbS';4\x98?\x9aj\x84?'
tRp8
sVdata_type
p9
V0entropy
p10
sS'lower_bound'
p11
I0
sS'learning_rate'
p12
F0.002
sS'file_size'
p13
I100000
sS'num_layers'
p14
I2
sS'batch_size'
p15
I50
sS'info_path'
p16
S'data/sequence_data/info_0entropy_21_markovity.txt'
p17
sS'num_epochs'
p18
I50
sVmarkovity
p19
I21
sS'epoch_stopped'
p20
I46
sS'save_every'
p21
I1000
sS'init_from'
p22
NsS'rnn_size'
p23
I128
sVp1
p24
F0.5
sVEntropy
p25
I0
sS'seq_length'
p26
I50
sS'decay_rate'
p27
F0.98999999999999999
sS'data_path'
p28
S'data/sequence_data/input_0entropy_21_markovity.txt'
p29
sS'save_dir'
p30
S'save'
p31
sS'output_path'
p32
S'outputs/output_0entropy.txt'
p33
sS'model'
p34
S'lstm'
p35
s.(dp1
S'grad_clip'
p2
F5
sS'vocab_size'
p3
I2
sS'last_epoch_loss'
p4
cnumpy.core.multiarray
scalar
p5
(cnumpy
dtype
p6
(S'f8'
I0
I1
tRp7
(I3
S'<'
NNNI-1
I-1
I0
tbS'R\x8f\xa7~\x7f\xa2\xae?'
tRp8
sVdata_type
p9
V0entropy
p10
sS'lower_bound'
p11
I0
sS'learning_rate'
p12
F0.002
sS'file_size'
p13
I100000
sS'num_layers'
p14
I2
sS'batch_size'
p15
I50
sS'info_path'
p16
S'data/sequence_data/info_0entropy_22_markovity.txt'
p17
sS'num_epochs'
p18
I50
sVmarkovity
p19
I22
sS'epoch_stopped'
p20
I50
sS'save_every'
p21
I1000
sS'init_from'
p22
NsS'rnn_size'
p23
I128
sVp1
p24
F0.5
sVEntropy
p25
I0
sS'seq_length'
p26
I50
sS'decay_rate'
p27
F0.98999999999999999
sS'data_path'
p28
S'data/sequence_data/input_0entropy_22_markovity.txt'
p29
sS'save_dir'
p30
S'save'
p31
sS'output_path'
p32
S'outputs/output_0entropy.txt'
p33
sS'model'
p34
S'lstm'
p35
s.(dp1
S'grad_clip'
p2
F5
sS'vocab_size'
p3
I2
sS'last_epoch_loss'
p4
cnumpy.core.multiarray
scalar
p5
(cnumpy
dtype
p6
(S'f8'
I0
I1
tRp7
(I3
S'<'
NNNI-1
I-1
I0
tbS'\x18n/\xb3m\xab\x9f?'
tRp8
sVdata_type
p9
V0entropy
p10
sS'lower_bound'
p11
I0
sS'learning_rate'
p12
F0.002
sS'file_size'
p13
I100000
sS'num_layers'
p14
I2
sS'batch_size'
p15
I50
sS'info_path'
p16
S'data/sequence_data/info_0entropy_23_markovity.txt'
p17
sS'num_epochs'
p18
I50
sVmarkovity
p19
I23
sS'epoch_stopped'
p20
I50
sS'save_every'
p21
I1000
sS'init_from'
p22
NsS'rnn_size'
p23
I128
sVp1
p24
F0.5
sVEntropy
p25
I0
sS'seq_length'
p26
I50
sS'decay_rate'
p27
F0.98999999999999999
sS'data_path'
p28
S'data/sequence_data/input_0entropy_23_markovity.txt'
p29
sS'save_dir'
p30
S'save'
p31
sS'output_path'
p32
S'outputs/output_0entropy.txt'
p33
sS'model'
p34
S'lstm'
p35
s.(dp1
S'grad_clip'
p2
F5
sS'vocab_size'
p3
I2
sS'last_epoch_loss'
p4
cnumpy.core.multiarray
scalar
p5
(cnumpy
dtype
p6
(S'f8'
I0
I1
tRp7
(I3
S'<'
NNNI-1
I-1
I0
tbS'\x8e\xd4r\xf0\x8f(\xc1?'
tRp8
sVdata_type
p9
V0entropy
p10
sS'lower_bound'
p11
I0
sS'learning_rate'
p12
F0.002
sS'file_size'
p13
I100000
sS'num_layers'
p14
I2
sS'batch_size'
p15
I50
sS'info_path'
p16
S'data/sequence_data/info_0entropy_24_markovity.txt'
p17
sS'num_epochs'
p18
I50
sVmarkovity
p19
I24
sS'epoch_stopped'
p20
I50
sS'save_every'
p21
I1000
sS'init_from'
p22
NsS'rnn_size'
p23
I128
sVp1
p24
F0.5
sVEntropy
p25
I0
sS'seq_length'
p26
I50
sS'decay_rate'
p27
F0.98999999999999999
sS'data_path'
p28
S'data/sequence_data/input_0entropy_24_markovity.txt'
p29
sS'save_dir'
p30
S'save'
p31
sS'output_path'
p32
S'outputs/output_0entropy.txt'
p33
sS'model'
p34
S'lstm'
p35
s.(dp1
S'grad_clip'
p2
F5
sS'vocab_size'
p3
I2
sS'last_epoch_loss'
p4
cnumpy.core.multiarray
scalar
p5
(cnumpy
dtype
p6
(S'f8'
I0
I1
tRp7
(I3
S'<'
NNNI-1
I-1
I0
tbS'\xb5\xff\x8e\x06\xbb3\xbb?'
tRp8
sVdata_type
p9
V0entropy
p10
sS'lower_bound'
p11
I0
sS'learning_rate'
p12
F0.002
sS'file_size'
p13
I100000
sS'num_layers'
p14
I2
sS'batch_size'
p15
I50
sS'info_path'
p16
S'data/sequence_data/info_0entropy_25_markovity.txt'
p17
sS'num_epochs'
p18
I50
sVmarkovity
p19
I25
sS'epoch_stopped'
p20
I50
sS'save_every'
p21
I1000
sS'init_from'
p22
NsS'rnn_size'
p23
I128
sVp1
p24
F0.5
sVEntropy
p25
I0
sS'seq_length'
p26
I50
sS'decay_rate'
p27
F0.98999999999999999
sS'data_path'
p28
S'data/sequence_data/input_0entropy_25_markovity.txt'
p29
sS'save_dir'
p30
S'save'
p31
sS'output_path'
p32
S'outputs/output_0entropy.txt'
p33
sS'model'
p34
S'lstm'
p35
s.(dp1
S'grad_clip'
p2
F5
sS'vocab_size'
p3
I2
sS'last_epoch_loss'
p4
cnumpy.core.multiarray
scalar
p5
(cnumpy
dtype
p6
(S'f8'
I0
I1
tRp7
(I3
S'<'
NNNI-1
I-1
I0
tbS'\x19N~\x94j\x9c\xc2?'
tRp8
sVdata_type
p9
V0entropy
p10
sS'lower_bound'
p11
I0
sS'learning_rate'
p12
F0.002
sS'file_size'
p13
I100000
sS'num_layers'
p14
I2
sS'batch_size'
p15
I50
sS'info_path'
p16
S'data/sequence_data/info_0entropy_26_markovity.txt'
p17
sS'num_epochs'
p18
I50
sVmarkovity
p19
I26
sS'epoch_stopped'
p20
I50
sS'save_every'
p21
I1000
sS'init_from'
p22
NsS'rnn_size'
p23
I128
sVp1
p24
F0.5
sVEntropy
p25
I0
sS'seq_length'
p26
I50
sS'decay_rate'
p27
F0.98999999999999999
sS'data_path'
p28
S'data/sequence_data/input_0entropy_26_markovity.txt'
p29
sS'save_dir'
p30
S'save'
p31
sS'output_path'
p32
S'outputs/output_0entropy.txt'
p33
sS'model'
p34
S'lstm'
p35
s.(dp1
S'grad_clip'
p2
F5
sS'vocab_size'
p3
I2
sS'last_epoch_loss'
p4
cnumpy.core.multiarray
scalar
p5
(cnumpy
dtype
p6
(S'f8'
I0
I1
tRp7
(I3
S'<'
NNNI-1
I-1
I0
tbS'\xe0o$\xf5n\x8e\xc4?'
tRp8
sVdata_type
p9
V0entropy
p10
sS'lower_bound'
p11
I0
sS'learning_rate'
p12
F0.002
sS'file_size'
p13
I100000
sS'num_layers'
p14
I2
sS'batch_size'
p15
I50
sS'info_path'
p16
S'data/sequence_data/info_0entropy_27_markovity.txt'
p17
sS'num_epochs'
p18
I50
sVmarkovity
p19
I27
sS'epoch_stopped'
p20
I50
sS'save_every'
p21
I1000
sS'init_from'
p22
NsS'rnn_size'
p23
I128
sVp1
p24
F0.5
sVEntropy
p25
I0
sS'seq_length'
p26
I50
sS'decay_rate'
p27
F0.98999999999999999
sS'data_path'
p28
S'data/sequence_data/input_0entropy_27_markovity.txt'
p29
sS'save_dir'
p30
S'save'
p31
sS'output_path'
p32
S'outputs/output_0entropy.txt'
p33
sS'model'
p34
S'lstm'
p35
s.(dp1
S'grad_clip'
p2
F5
sS'vocab_size'
p3
I2
sS'last_epoch_loss'
p4
cnumpy.core.multiarray
scalar
p5
(cnumpy
dtype
p6
(S'f8'
I0
I1
tRp7
(I3
S'<'
NNNI-1
I-1
I0
tbS'r\xe9(\xa8\x9e_\xc5?'
tRp8
sVdata_type
p9
V0entropy
p10
sS'lower_bound'
p11
I0
sS'learning_rate'
p12
F0.002
sS'file_size'
p13
I100000
sS'num_layers'
p14
I2
sS'batch_size'
p15
I50
sS'info_path'
p16
S'data/sequence_data/info_0entropy_28_markovity.txt'
p17
sS'num_epochs'
p18
I50
sVmarkovity
p19
I28
sS'epoch_stopped'
p20
I50
sS'save_every'
p21
I1000
sS'init_from'
p22
NsS'rnn_size'
p23
I128
sVp1
p24
F0.5
sVEntropy
p25
I0
sS'seq_length'
p26
I50
sS'decay_rate'
p27
F0.98999999999999999
sS'data_path'
p28
S'data/sequence_data/input_0entropy_28_markovity.txt'
p29
sS'save_dir'
p30
S'save'
p31
sS'output_path'
p32
S'outputs/output_0entropy.txt'
p33
sS'model'
p34
S'lstm'
p35
s.(dp1
S'grad_clip'
p2
F5
sS'vocab_size'
p3
I2
sS'last_epoch_loss'
p4
cnumpy.core.multiarray
scalar
p5
(cnumpy
dtype
p6
(S'f8'
I0
I1
tRp7
(I3
S'<'
NNNI-1
I-1
I0
tbS'6\xdf\xec5\x0e\x01\xf0?'
tRp8
sVdata_type
p9
V0entropy
p10
sS'lower_bound'
p11
I0
sS'learning_rate'
p12
F0.002
sS'file_size'
p13
I100000
sS'num_layers'
p14
I2
sS'batch_size'
p15
I50
sS'info_path'
p16
S'data/sequence_data/info_0entropy_29_markovity.txt'
p17
sS'num_epochs'
p18
I50
sVmarkovity
p19
I29
sS'epoch_stopped'
p20
I50
sS'save_every'
p21
I1000
sS'init_from'
p22
NsS'rnn_size'
p23
I128
sVp1
p24
F0.5
sVEntropy
p25
I0
sS'seq_length'
p26
I50
sS'decay_rate'
p27
F0.98999999999999999
sS'data_path'
p28
S'data/sequence_data/input_0entropy_29_markovity.txt'
p29
sS'save_dir'
p30
S'save'
p31
sS'output_path'
p32
S'outputs/output_0entropy.txt'
p33
sS'model'
p34
S'lstm'
p35
s.(dp1
S'grad_clip'
p2
F5
sS'vocab_size'
p3
I2
sS'last_epoch_loss'
p4
cnumpy.core.multiarray
scalar
p5
(cnumpy
dtype
p6
(S'f8'
I0
I1
tRp7
(I3
S'<'
NNNI-1
I-1
I0
tbS'}\xfc\x07\xdd\xce\xa6\xde?'
tRp8
sVdata_type
p9
V0entropy
p10
sS'lower_bound'
p11
I0
sS'learning_rate'
p12
F0.002
sS'file_size'
p13
I100000
sS'num_layers'
p14
I2
sS'batch_size'
p15
I50
sS'info_path'
p16
S'data/sequence_data/info_0entropy_30_markovity.txt'
p17
sS'num_epochs'
p18
I50
sVmarkovity
p19
I30
sS'epoch_stopped'
p20
I50
sS'save_every'
p21
I1000
sS'init_from'
p22
NsS'rnn_size'
p23
I128
sVp1
p24
F0.5
sVEntropy
p25
I0
sS'seq_length'
p26
I50
sS'decay_rate'
p27
F0.98999999999999999
sS'data_path'
p28
S'data/sequence_data/input_0entropy_30_markovity.txt'
p29
sS'save_dir'
p30
S'save'
p31
sS'output_path'
p32
S'outputs/output_0entropy.txt'
p33
sS'model'
p34
S'lstm'
p35
s.(dp1
S'grad_clip'
p2
F5
sS'vocab_size'
p3
I2
sS'last_epoch_loss'
p4
cnumpy.core.multiarray
scalar
p5
(cnumpy
dtype
p6
(S'f8'
I0
I1
tRp7
(I3
S'<'
NNNI-1
I-1
I0
tbS'\xac\x1e]\xda"\x00\xf0?'
tRp8
sVdata_type
p9
V0entropy
p10
sS'lower_bound'
p11
I0
sS'learning_rate'
p12
F0.002
sS'file_size'
p13
I100000
sS'num_layers'
p14
I2
sS'batch_size'
p15
I50
sS'info_path'
p16
S'data/sequence_data/info_0entropy_31_markovity.txt'
p17
sS'num_epochs'
p18
I50
sVmarkovity
p19
I31
sS'epoch_stopped'
p20
I50
sS'save_every'
p21
I1000
sS'init_from'
p22
NsS'rnn_size'
p23
I128
sVp1
p24
F0.5
sVEntropy
p25
I0
sS'seq_length'
p26
I50
sS'decay_rate'
p27
F0.98999999999999999
sS'data_path'
p28
S'data/sequence_data/input_0entropy_31_markovity.txt'
p29
sS'save_dir'
p30
S'save'
p31
sS'output_path'
p32
S'outputs/output_0entropy.txt'
p33
sS'model'
p34
S'lstm'
p35
s.(dp1
S'grad_clip'
p2
F5
sS'vocab_size'
p3
I2
sS'last_epoch_loss'
p4
cnumpy.core.multiarray
scalar
p5
(cnumpy
dtype
p6
(S'f8'
I0
I1
tRp7
(I3
S'<'
NNNI-1
I-1
I0
tbS'H\x98\x9bC\xc9\xf1\x83?'
tRp8
sVdata_type
p9
V0entropy
p10
sS'lower_bound'
p11
I0
sS'learning_rate'
p12
F0.002
sS'file_size'
p13
I100000
sS'num_layers'
p14
I2
sS'batch_size'
p15
I50
sS'info_path'
p16
S'data/sequence_data/info_0entropy_32_markovity.txt'
p17
sS'num_epochs'
p18
I50
sVmarkovity
p19
I32
sS'epoch_stopped'
p20
I29
sS'save_every'
p21
I1000
sS'init_from'
p22
NsS'rnn_size'
p23
I128
sVp1
p24
F0.5
sVEntropy
p25
I0
sS'seq_length'
p26
I50
sS'decay_rate'
p27
F0.98999999999999999
sS'data_path'
p28
S'data/sequence_data/input_0entropy_32_markovity.txt'
p29
sS'save_dir'
p30
S'save'
p31
sS'output_path'
p32
S'outputs/output_0entropy.txt'
p33
sS'model'
p34
S'lstm'
p35
s.(dp1
S'grad_clip'
p2
F5
sS'vocab_size'
p3
I2
sS'last_epoch_loss'
p4
cnumpy.core.multiarray
scalar
p5
(cnumpy
dtype
p6
(S'f8'
I0
I1
tRp7
(I3
S'<'
NNNI-1
I-1
I0
tbS'\x1eqW:\x88\xa1\x82?'
tRp8
sVdata_type
p9
V0entropy
p10
sS'lower_bound'
p11
I0
sS'learning_rate'
p12
F0.002
sS'file_size'
p13
I100000
sS'num_layers'
p14
I2
sS'batch_size'
p15
I50
sS'info_path'
p16
S'data/sequence_data/info_0entropy_33_markovity.txt'
p17
sS'num_epochs'
p18
I50
sVmarkovity
p19
I33
sS'epoch_stopped'
p20
I27
sS'save_every'
p21
I1000
sS'init_from'
p22
NsS'rnn_size'
p23
I128
sVp1
p24
F0.5
sVEntropy
p25
I0
sS'seq_length'
p26
I50
sS'decay_rate'
p27
F0.98999999999999999
sS'data_path'
p28
S'data/sequence_data/input_0entropy_33_markovity.txt'
p29
sS'save_dir'
p30
S'save'
p31
sS'output_path'
p32
S'outputs/output_0entropy.txt'
p33
sS'model'
p34
S'lstm'
p35
s.(dp1
S'grad_clip'
p2
F5
sS'vocab_size'
p3
I2
sS'last_epoch_loss'
p4
cnumpy.core.multiarray
scalar
p5
(cnumpy
dtype
p6
(S'f8'
I0
I1
tRp7
(I3
S'<'
NNNI-1
I-1
I0
tbS'\xc2@v\xef\xa5@\xe0?'
tRp8
sVdata_type
p9
V0entropy
p10
sS'lower_bound'
p11
I0
sS'learning_rate'
p12
F0.002
sS'file_size'
p13
I100000
sS'num_layers'
p14
I2
sS'batch_size'
p15
I50
sS'info_path'
p16
S'data/sequence_data/info_0entropy_34_markovity.txt'
p17
sS'num_epochs'
p18
I50
sVmarkovity
p19
I34
sS'epoch_stopped'
p20
I50
sS'save_every'
p21
I1000
sS'init_from'
p22
NsS'rnn_size'
p23
I128
sVp1
p24
F0.5
sVEntropy
p25
I0
sS'seq_length'
p26
I50
sS'decay_rate'
p27
F0.98999999999999999
sS'data_path'
p28
S'data/sequence_data/input_0entropy_34_markovity.txt'
p29
sS'save_dir'
p30
S'save'
p31
sS'output_path'
p32
S'outputs/output_0entropy.txt'
p33
sS'model'
p34
S'lstm'
p35
s.(dp1
S'grad_clip'
p2
F5
sS'vocab_size'
p3
I2
sS'last_epoch_loss'
p4
cnumpy.core.multiarray
scalar
p5
(cnumpy
dtype
p6
(S'f8'
I0
I1
tRp7
(I3
S'<'
NNNI-1
I-1
I0
tbS'&bU\xe3M\xeb\xdc?'
tRp8
sVdata_type
p9
V0entropy
p10
sS'lower_bound'
p11
I0
sS'learning_rate'
p12
F0.002
sS'file_size'
p13
I100000
sS'num_layers'
p14
I2
sS'batch_size'
p15
I50
sS'info_path'
p16
S'data/sequence_data/info_0entropy_35_markovity.txt'
p17
sS'num_epochs'
p18
I50
sVmarkovity
p19
I35
sS'epoch_stopped'
p20
I50
sS'save_every'
p21
I1000
sS'init_from'
p22
NsS'rnn_size'
p23
I128
sVp1
p24
F0.5
sVEntropy
p25
I0
sS'seq_length'
p26
I50
sS'decay_rate'
p27
F0.98999999999999999
sS'data_path'
p28
S'data/sequence_data/input_0entropy_35_markovity.txt'
p29
sS'save_dir'
p30
S'save'
p31
sS'output_path'
p32
S'outputs/output_0entropy.txt'
p33
sS'model'
p34
S'lstm'
p35
s.(dp1
S'grad_clip'
p2
F5
sS'vocab_size'
p3
I2
sS'last_epoch_loss'
p4
cnumpy.core.multiarray
scalar
p5
(cnumpy
dtype
p6
(S'f8'
I0
I1
tRp7
(I3
S'<'
NNNI-1
I-1
I0
tbS'\xbf\xc5\x89\xb6\xea\x94\xe5?'
tRp8
sVdata_type
p9
V0entropy
p10
sS'lower_bound'
p11
I0
sS'learning_rate'
p12
F0.002
sS'file_size'
p13
I100000
sS'num_layers'
p14
I2
sS'batch_size'
p15
I50
sS'info_path'
p16
S'data/sequence_data/info_0entropy_36_markovity.txt'
p17
sS'num_epochs'
p18
I50
sVmarkovity
p19
I36
sS'epoch_stopped'
p20
I50
sS'save_every'
p21
I1000
sS'init_from'
p22
NsS'rnn_size'
p23
I128
sVp1
p24
F0.5
sVEntropy
p25
I0
sS'seq_length'
p26
I50
sS'decay_rate'
p27
F0.98999999999999999
sS'data_path'
p28
S'data/sequence_data/input_0entropy_36_markovity.txt'
p29
sS'save_dir'
p30
S'save'
p31
sS'output_path'
p32
S'outputs/output_0entropy.txt'
p33
sS'model'
p34
S'lstm'
p35
s.(dp1
S'grad_clip'
p2
F5
sS'vocab_size'
p3
I2
sS'last_epoch_loss'
p4
cnumpy.core.multiarray
scalar
p5
(cnumpy
dtype
p6
(S'f8'
I0
I1
tRp7
(I3
S'<'
NNNI-1
I-1
I0
tbS'\xa0\xc8\xdb-\xff*\xe8?'
tRp8
sVdata_type
p9
V0entropy
p10
sS'lower_bound'
p11
I0
sS'learning_rate'
p12
F0.002
sS'file_size'
p13
I100000
sS'num_layers'
p14
I2
sS'batch_size'
p15
I50
sS'info_path'
p16
S'data/sequence_data/info_0entropy_37_markovity.txt'
p17
sS'num_epochs'
p18
I50
sVmarkovity
p19
I37
sS'epoch_stopped'
p20
I50
sS'save_every'
p21
I1000
sS'init_from'
p22
NsS'rnn_size'
p23
I128
sVp1
p24
F0.5
sVEntropy
p25
I0
sS'seq_length'
p26
I50
sS'decay_rate'
p27
F0.98999999999999999
sS'data_path'
p28
S'data/sequence_data/input_0entropy_37_markovity.txt'
p29
sS'save_dir'
p30
S'save'
p31
sS'output_path'
p32
S'outputs/output_0entropy.txt'
p33
sS'model'
p34
S'lstm'
p35
s.(dp1
S'grad_clip'
p2
F5
sS'vocab_size'
p3
I2
sS'last_epoch_loss'
p4
cnumpy.core.multiarray
scalar
p5
(cnumpy
dtype
p6
(S'f8'
I0
I1
tRp7
(I3
S'<'
NNNI-1
I-1
I0
tbS"\xe6\xc3'N\x00!\xeb?"
tRp8
sVdata_type
p9
V0entropy
p10
sS'lower_bound'
p11
I0
sS'learning_rate'
p12
F0.002
sS'file_size'
p13
I100000
sS'num_layers'
p14
I2
sS'batch_size'
p15
I50
sS'info_path'
p16
S'data/sequence_data/info_0entropy_38_markovity.txt'
p17
sS'num_epochs'
p18
I50
sVmarkovity
p19
I38
sS'epoch_stopped'
p20
I50
sS'save_every'
p21
I1000
sS'init_from'
p22
NsS'rnn_size'
p23
I128
sVp1
p24
F0.5
sVEntropy
p25
I0
sS'seq_length'
p26
I50
sS'decay_rate'
p27
F0.98999999999999999
sS'data_path'
p28
S'data/sequence_data/input_0entropy_38_markovity.txt'
p29
sS'save_dir'
p30
S'save'
p31
sS'output_path'
p32
S'outputs/output_0entropy.txt'
p33
sS'model'
p34
S'lstm'
p35
s.(dp1
S'grad_clip'
p2
F5
sS'vocab_size'
p3
I2
sS'last_epoch_loss'
p4
cnumpy.core.multiarray
scalar
p5
(cnumpy
dtype
p6
(S'f8'
I0
I1
tRp7
(I3
S'<'
NNNI-1
I-1
I0
tbS'0\xf6\xaa\xfa\xc0\x18\xe8?'
tRp8
sVdata_type
p9
V0entropy
p10
sS'lower_bound'
p11
I0
sS'learning_rate'
p12
F0.002
sS'file_size'
p13
I100000
sS'num_layers'
p14
I2
sS'batch_size'
p15
I50
sS'info_path'
p16
S'data/sequence_data/info_0entropy_39_markovity.txt'
p17
sS'num_epochs'
p18
I50
sVmarkovity
p19
I39
sS'epoch_stopped'
p20
I50
sS'save_every'
p21
I1000
sS'init_from'
p22
NsS'rnn_size'
p23
I128
sVp1
p24
F0.5
sVEntropy
p25
I0
sS'seq_length'
p26
I50
sS'decay_rate'
p27
F0.98999999999999999
sS'data_path'
p28
S'data/sequence_data/input_0entropy_39_markovity.txt'
p29
sS'save_dir'
p30
S'save'
p31
sS'output_path'
p32
S'outputs/output_0entropy.txt'
p33
sS'model'
p34
S'lstm'
p35
s.(dp1
S'grad_clip'
p2
F5
sS'vocab_size'
p3
I2
sS'last_epoch_loss'
p4
cnumpy.core.multiarray
scalar
p5
(cnumpy
dtype
p6
(S'f8'
I0
I1
tRp7
(I3
S'<'
NNNI-1
I-1
I0
tbS'A\x86m\xd1{\x8a\xe6?'
tRp8
sVdata_type
p9
V0entropy
p10
sS'lower_bound'
p11
I0
sS'learning_rate'
p12
F0.002
sS'file_size'
p13
I100000
sS'num_layers'
p14
I2
sS'batch_size'
p15
I50
sS'info_path'
p16
S'data/sequence_data/info_0entropy_40_markovity.txt'
p17
sS'num_epochs'
p18
I50
sVmarkovity
p19
I40
sS'epoch_stopped'
p20
I50
sS'save_every'
p21
I1000
sS'init_from'
p22
NsS'rnn_size'
p23
I128
sVp1
p24
F0.5
sVEntropy
p25
I0
sS'seq_length'
p26
I50
sS'decay_rate'
p27
F0.98999999999999999
sS'data_path'
p28
S'data/sequence_data/input_0entropy_40_markovity.txt'
p29
sS'save_dir'
p30
S'save'
p31
sS'output_path'
p32
S'outputs/output_0entropy.txt'
p33
sS'model'
p34
S'lstm'
p35
s.(dp1
S'grad_clip'
p2
F5
sS'vocab_size'
p3
I2
sS'last_epoch_loss'
p4
cnumpy.core.multiarray
scalar
p5
(cnumpy
dtype
p6
(S'f8'
I0
I1
tRp7
(I3
S'<'
NNNI-1
I-1
I0
tbS'E\xba{\x81\x836\xef?'
tRp8
sVdata_type
p9
V0entropy
p10
sS'lower_bound'
p11
I0
sS'learning_rate'
p12
F0.002
sS'file_size'
p13
I100000
sS'num_layers'
p14
I2
sS'batch_size'
p15
I50
sS'info_path'
p16
S'data/sequence_data/info_0entropy_41_markovity.txt'
p17
sS'num_epochs'
p18
I50
sVmarkovity
p19
I41
sS'epoch_stopped'
p20
I50
sS'save_every'
p21
I1000
sS'init_from'
p22
NsS'rnn_size'
p23
I128
sVp1
p24
F0.5
sVEntropy
p25
I0
sS'seq_length'
p26
I50
sS'decay_rate'
p27
F0.98999999999999999
sS'data_path'
p28
S'data/sequence_data/input_0entropy_41_markovity.txt'
p29
sS'save_dir'
p30
S'save'
p31
sS'output_path'
p32
S'outputs/output_0entropy.txt'
p33
sS'model'
p34
S'lstm'
p35
s.(dp1
S'grad_clip'
p2
F5
sS'vocab_size'
p3
I2
sS'last_epoch_loss'
p4
cnumpy.core.multiarray
scalar
p5
(cnumpy
dtype
p6
(S'f8'
I0
I1
tRp7
(I3
S'<'
NNNI-1
I-1
I0
tbS'\xd0P\xf6<-\x00\xf0?'
tRp8
sVdata_type
p9
V0entropy
p10
sS'lower_bound'
p11
I0
sS'learning_rate'
p12
F0.002
sS'file_size'
p13
I100000
sS'num_layers'
p14
I2
sS'batch_size'
p15
I50
sS'info_path'
p16
S'data/sequence_data/info_0entropy_42_markovity.txt'
p17
sS'num_epochs'
p18
I50
sVmarkovity
p19
I42
sS'epoch_stopped'
p20
I50
sS'save_every'
p21
I1000
sS'init_from'
p22
NsS'rnn_size'
p23
I128
sVp1
p24
F0.5
sVEntropy
p25
I0
sS'seq_length'
p26
I50
sS'decay_rate'
p27
F0.98999999999999999
sS'data_path'
p28
S'data/sequence_data/input_0entropy_42_markovity.txt'
p29
sS'save_dir'
p30
S'save'
p31
sS'output_path'
p32
S'outputs/output_0entropy.txt'
p33
sS'model'
p34
S'lstm'
p35
s.(dp1
S'grad_clip'
p2
F5
sS'vocab_size'
p3
I2
sS'last_epoch_loss'
p4
cnumpy.core.multiarray
scalar
p5
(cnumpy
dtype
p6
(S'f8'
I0
I1
tRp7
(I3
S'<'
NNNI-1
I-1
I0
tbS'\xd1\x1d\x1d\x98\x06\x00\xf0?'
tRp8
sVdata_type
p9
V0entropy
p10
sS'lower_bound'
p11
I0
sS'learning_rate'
p12
F0.002
sS'file_size'
p13
I100000
sS'num_layers'
p14
I2
sS'batch_size'
p15
I50
sS'info_path'
p16
S'data/sequence_data/info_0entropy_43_markovity.txt'
p17
sS'num_epochs'
p18
I50
sVmarkovity
p19
I43
sS'epoch_stopped'
p20
I50
sS'save_every'
p21
I1000
sS'init_from'
p22
NsS'rnn_size'
p23
I128
sVp1
p24
F0.5
sVEntropy
p25
I0
sS'seq_length'
p26
I50
sS'decay_rate'
p27
F0.98999999999999999
sS'data_path'
p28
S'data/sequence_data/input_0entropy_43_markovity.txt'
p29
sS'save_dir'
p30
S'save'
p31
sS'output_path'
p32
S'outputs/output_0entropy.txt'
p33
sS'model'
p34
S'lstm'
p35
s.(dp1
S'grad_clip'
p2
F5
sS'vocab_size'
p3
I2
sS'last_epoch_loss'
p4
cnumpy.core.multiarray
scalar
p5
(cnumpy
dtype
p6
(S'f8'
I0
I1
tRp7
(I3
S'<'
NNNI-1
I-1
I0
tbS'B\xb9/0N\xe7\xef?'
tRp8
sVdata_type
p9
V0entropy
p10
sS'lower_bound'
p11
I0
sS'learning_rate'
p12
F0.002
sS'file_size'
p13
I100000
sS'num_layers'
p14
I2
sS'batch_size'
p15
I50
sS'info_path'
p16
S'data/sequence_data/info_0entropy_44_markovity.txt'
p17
sS'num_epochs'
p18
I50
sVmarkovity
p19
I44
sS'epoch_stopped'
p20
I50
sS'save_every'
p21
I1000
sS'init_from'
p22
NsS'rnn_size'
p23
I128
sVp1
p24
F0.5
sVEntropy
p25
I0
sS'seq_length'
p26
I50
sS'decay_rate'
p27
F0.98999999999999999
sS'data_path'
p28
S'data/sequence_data/input_0entropy_44_markovity.txt'
p29
sS'save_dir'
p30
S'save'
p31
sS'output_path'
p32
S'outputs/output_0entropy.txt'
p33
sS'model'
p34
S'lstm'
p35
s.(dp1
S'grad_clip'
p2
F5
sS'vocab_size'
p3
I2
sS'last_epoch_loss'
p4
cnumpy.core.multiarray
scalar
p5
(cnumpy
dtype
p6
(S'f8'
I0
I1
tRp7
(I3
S'<'
NNNI-1
I-1
I0
tbS'\x16M\xc6H\xb5\x00\xf0?'
tRp8
sVdata_type
p9
V0entropy
p10
sS'lower_bound'
p11
I0
sS'learning_rate'
p12
F0.002
sS'file_size'
p13
I100000
sS'num_layers'
p14
I2
sS'batch_size'
p15
I50
sS'info_path'
p16
S'data/sequence_data/info_0entropy_45_markovity.txt'
p17
sS'num_epochs'
p18
I50
sVmarkovity
p19
I45
sS'epoch_stopped'
p20
I50
sS'save_every'
p21
I1000
sS'init_from'
p22
NsS'rnn_size'
p23
I128
sVp1
p24
F0.5
sVEntropy
p25
I0
sS'seq_length'
p26
I50
sS'decay_rate'
p27
F0.98999999999999999
sS'data_path'
p28
S'data/sequence_data/input_0entropy_45_markovity.txt'
p29
sS'save_dir'
p30
S'save'
p31
sS'output_path'
p32
S'outputs/output_0entropy.txt'
p33
sS'model'
p34
S'lstm'
p35
s.(dp1
S'grad_clip'
p2
F5
sS'vocab_size'
p3
I2
sS'last_epoch_loss'
p4
cnumpy.core.multiarray
scalar
p5
(cnumpy
dtype
p6
(S'f8'
I0
I1
tRp7
(I3
S'<'
NNNI-1
I-1
I0
tbS'\xf8#\xcf\x0b\x9c\x00\xf0?'
tRp8
sVdata_type
p9
V0entropy
p10
sS'lower_bound'
p11
I0
sS'learning_rate'
p12
F0.002
sS'file_size'
p13
I100000
sS'num_layers'
p14
I2
sS'batch_size'
p15
I50
sS'info_path'
p16
S'data/sequence_data/info_0entropy_46_markovity.txt'
p17
sS'num_epochs'
p18
I50
sVmarkovity
p19
I46
sS'epoch_stopped'
p20
I50
sS'save_every'
p21
I1000
sS'init_from'
p22
NsS'rnn_size'
p23
I128
sVp1
p24
F0.5
sVEntropy
p25
I0
sS'seq_length'
p26
I50
sS'decay_rate'
p27
F0.98999999999999999
sS'data_path'
p28
S'data/sequence_data/input_0entropy_46_markovity.txt'
p29
sS'save_dir'
p30
S'save'
p31
sS'output_path'
p32
S'outputs/output_0entropy.txt'
p33
sS'model'
p34
S'lstm'
p35
s.(dp1
S'grad_clip'
p2
F5
sS'vocab_size'
p3
I2
sS'last_epoch_loss'
p4
cnumpy.core.multiarray
scalar
p5
(cnumpy
dtype
p6
(S'f8'
I0
I1
tRp7
(I3
S'<'
NNNI-1
I-1
I0
tbS'\x12\xeaAf\x82\x01\xf0?'
tRp8
sVdata_type
p9
V0entropy
p10
sS'lower_bound'
p11
I0
sS'learning_rate'
p12
F0.002
sS'file_size'
p13
I100000
sS'num_layers'
p14
I2
sS'batch_size'
p15
I50
sS'info_path'
p16
S'data/sequence_data/info_0entropy_47_markovity.txt'
p17
sS'num_epochs'
p18
I50
sVmarkovity
p19
I47
sS'epoch_stopped'
p20
I50
sS'save_every'
p21
I1000
sS'init_from'
p22
NsS'rnn_size'
p23
I128
sVp1
p24
F0.5
sVEntropy
p25
I0
sS'seq_length'
p26
I50
sS'decay_rate'
p27
F0.98999999999999999
sS'data_path'
p28
S'data/sequence_data/input_0entropy_47_markovity.txt'
p29
sS'save_dir'
p30
S'save'
p31
sS'output_path'
p32
S'outputs/output_0entropy.txt'
p33
sS'model'
p34
S'lstm'
p35
s.(dp1
S'grad_clip'
p2
F5
sS'vocab_size'
p3
I2
sS'last_epoch_loss'
p4
cnumpy.core.multiarray
scalar
p5
(cnumpy
dtype
p6
(S'f8'
I0
I1
tRp7
(I3
S'<'
NNNI-1
I-1
I0
tbS'>\xe1\x9c\xa5M\x00\xf0?'
tRp8
sVdata_type
p9
V0entropy
p10
sS'lower_bound'
p11
I0
sS'learning_rate'
p12
F0.002
sS'file_size'
p13
I100000
sS'num_layers'
p14
I2
sS'batch_size'
p15
I50
sS'info_path'
p16
S'data/sequence_data/info_0entropy_48_markovity.txt'
p17
sS'num_epochs'
p18
I50
sVmarkovity
p19
I48
sS'epoch_stopped'
p20
I50
sS'save_every'
p21
I1000
sS'init_from'
p22
NsS'rnn_size'
p23
I128
sVp1
p24
F0.5
sVEntropy
p25
I0
sS'seq_length'
p26
I50
sS'decay_rate'
p27
F0.98999999999999999
sS'data_path'
p28
S'data/sequence_data/input_0entropy_48_markovity.txt'
p29
sS'save_dir'
p30
S'save'
p31
sS'output_path'
p32
S'outputs/output_0entropy.txt'
p33
sS'model'
p34
S'lstm'
p35
s.(dp1
S'grad_clip'
p2
F5
sS'vocab_size'
p3
I2
sS'last_epoch_loss'
p4
cnumpy.core.multiarray
scalar
p5
(cnumpy
dtype
p6
(S'f8'
I0
I1
tRp7
(I3
S'<'
NNNI-1
I-1
I0
tbS'\r\xeeF\xea\x9a\xd1\xef?'
tRp8
sVdata_type
p9
V0entropy
p10
sS'lower_bound'
p11
I0
sS'learning_rate'
p12
F0.002
sS'file_size'
p13
I100000
sS'num_layers'
p14
I2
sS'batch_size'
p15
I50
sS'info_path'
p16
S'data/sequence_data/info_0entropy_49_markovity.txt'
p17
sS'num_epochs'
p18
I50
sVmarkovity
p19
I49
sS'epoch_stopped'
p20
I50
sS'save_every'
p21
I1000
sS'init_from'
p22
NsS'rnn_size'
p23
I128
sVp1
p24
F0.5
sVEntropy
p25
I0
sS'seq_length'
p26
I50
sS'decay_rate'
p27
F0.98999999999999999
sS'data_path'
p28
S'data/sequence_data/input_0entropy_49_markovity.txt'
p29
sS'save_dir'
p30
S'save'
p31
sS'output_path'
p32
S'outputs/output_0entropy.txt'
p33
sS'model'
p34
S'lstm'
p35
s.(dp1
S'grad_clip'
p2
F5
sS'vocab_size'
p3
I2
sS'last_epoch_loss'
p4
cnumpy.core.multiarray
scalar
p5
(cnumpy
dtype
p6
(S'f8'
I0
I1
tRp7
(I3
S'<'
NNNI-1
I-1
I0
tbS'\xd85\x98vQ\xfd\xef?'
tRp8
sVdata_type
p9
V0entropy
p10
sS'lower_bound'
p11
I0
sS'learning_rate'
p12
F0.002
sS'file_size'
p13
I100000
sS'num_layers'
p14
I2
sS'batch_size'
p15
I50
sS'info_path'
p16
S'data/sequence_data/info_0entropy_50_markovity.txt'
p17
sS'num_epochs'
p18
I50
sVmarkovity
p19
I50
sS'epoch_stopped'
p20
I50
sS'save_every'
p21
I1000
sS'init_from'
p22
NsS'rnn_size'
p23
I128
sVp1
p24
F0.5
sVEntropy
p25
I0
sS'seq_length'
p26
I50
sS'decay_rate'
p27
F0.98999999999999999
sS'data_path'
p28
S'data/sequence_data/input_0entropy_50_markovity.txt'
p29
sS'save_dir'
p30
S'save'
p31
sS'output_path'
p32
S'outputs/output_0entropy.txt'
p33
sS'model'
p34
S'lstm'
p35
s.